(dp0
V
p1
(lp2
Vdrained chickpeas (from a -ounce can)
p3
asVsliced strawberry syrup
p4
(S'sorry no price'
p5
tp6
sVlot freshly chive
p7
(g5
tp8
sVfrac parsley
p9
(g5
tp10
sVpinch red pepper
p11
(g5
tp12
sVsweetened coconut
p13
(g5
tp14
sVchocolate-covered toffee bar
p15
(g5
tp16
sVthai serrano chile
p17
(g5
tp18
sVchunk root ginger
p19
(g5
tp20
sVkosher salt coarsely ground sea salt
p21
(g5
tp22
sVstick lemongrass
p23
(g5
tp24
sVpeeled deveined shrimp
p25
(g5
tp26
sVgood-quality gin
p27
(g5
tp28
sVground cardamom
p29
(g5
tp30
sVrosemary leaf
p31
(g5
tp32
sVlowfat buttermilk
p33
(g5
tp34
sVpinch baking soda
p35
(g5
tp36
sV-inch-thick pancetta
p37
(g5
tp38
sVjalapeos optional
p39
(g5
tp40
sVcanned chickpea
p41
(g5
tp42
sVpinch cayenne pepper
p43
(g5
tp44
sVtaco tex-mex seasoning
p45
(g5
tp46
sVjalapeno chile
p47
(g5
tp48
sVloosely packed cilantro
p49
(g5
tp50
sV-inch tortilla
p51
(g5
tp52
sVpack shortbread biscuit
p53
(g5
tp54
sV-inch chunk ginger
p55
(g5
tp56
sVthinly sliced spinach leaf
p57
(g5
tp58
sVpackage strawberry jello
p59
(g5
tp60
sVfinely herb
p61
(g5
tp62
sVpancetta
p63
(g5
tp64
sVmozzarella parmesan cheese
p65
(g5
tp66
sVorganic stock
p67
(g5
tp68
sVunsweetened coconut
p69
(g5
tp70
sVthick asparagus spear
p71
(g5
tp72
sVupdated double
p73
(g5
tp74
sVpetits poi
p75
(g5
tp76
sVhalved brussels sprout
p77
(g5
tp78
sVbig big
p79
(g5
tp80
sVbalsamic glaze reduction
p81
(g5
tp82
sVhalibut fillet
p83
(g5
tp84
sVdelallo basil pesto
p85
(g5
tp86
sVbunch oregano
p87
(g5
tp88
sVtoasted slivered almond
p89
(g5
tp90
sVcoarsely cilantro parsley
p91
(g5
tp92
sVgremolata
p93
(g5
tp94
sVserrano pepper
p95
(g5
tp96
sVranch dressing
p97
(g5
tp98
sVjack
p99
(g5
tp100
sVdrop yellow food coloring
p101
(g5
tp102
sVpomegranate seed
p103
(g5
tp104
sVwhole whole wheat english muffin
p105
(g5
tp106
sVextra-firm tofu cut into thin -inch segment
p107
(g5
tp108
sVstrawberry jam
p109
(g5
tp110
sVfrac sea salt
p111
(g5
tp112
sVfrac garlic powder
p113
(g5
tp114
sVtub salsa
p115
(g5
tp116
sVolive oil melted coconut oil
p117
(g5
tp118
sVlarabar crunchy berry renola
p119
(g5
tp120
sVcheese monterey jack
p121
(g5
tp122
sVmadras curry powder
p123
(g5
tp124
sVblock halloumi cheese
p125
(g5
tp126
sVtri-color peppercorn
p127
(g5
tp128
sVtub cream cheese mascarpone
p129
(g5
tp130
sVtotally optional frac mix-ins like walnut pecan
p131
(g5
tp132
sVwell-stirred tahini paste
p133
(g5
tp134
sVcourgette
p135
(g5
tp136
sVwhole seedless watermelon
p137
(g5
tp138
sVpoppy
p139
(g5
tp140
sVolive oil plus more
p141
(g5
tp142
sVorzo
p143
(g5
tp144
sVchilli powder
p145
(g5
tp146
sVground all-spice
p147
(g5
tp148
sVmedium-grind cornmeal
p149
(g5
tp150
sVroughly pecan
p151
(g5
tp152
sVpenne pasta
p153
(g5
tp154
sVdark chocolate chunk
p155
(g5
tp156
sValmond
p157
(g5
tp158
sS'bacon'
p159
(S'$ 5.628 per lb. '
p160
tp161
sVfrac apricot
p162
(g5
tp163
sVextra parmesan cheese
p164
(g5
tp165
sVinstant espresso granule dissolved
p166
(g5
tp167
sVnatural cocoa powder non-dutched
p168
(g5
tp169
sVgood marinara sauce
p170
(g5
tp171
sVchickpea equivalent -ounce
p172
(g5
tp173
sVblanched slivered almond
p174
(g5
tp175
sVpack philadelphia cheese
p176
(g5
tp177
sVpomegranate molasses
p178
(g5
tp179
sVlow-moisture
p180
(g5
tp181
sVmascarpone
p182
(g5
tp183
sV-ounce pumpkin puree*
p184
(g5
tp185
sVcooking
p186
(g5
tp187
sVstemmed roughly fig
p188
(g5
tp189
sVwhole yellow bell pepper
p190
(g5
tp191
sVheaped dijon mustard
p192
(g5
tp193
sV-ounce bar cream cheese
p194
(g5
tp195
sVfrac walnut
p196
(g5
tp197
sVcandied pecan
p198
(g5
tp199
sVtart cherry
p200
(g5
tp201
sV-ounce package instant cheesecake pudding mix
p202
(g5
tp203
sVpinch ground black pepper
p204
(g5
tp205
sVpint bunch kale
p206
(g5
tp207
sVpackage whipped topping
p208
(g5
tp209
sVblack white sesame seed
p210
(g5
tp211
sVlacinato kale
p212
(g5
tp213
sVchili powder
p214
(g5
tp215
sVherb
p216
(g5
tp217
sVthinly sliced sweet coppa prosciutto
p218
(g5
tp219
sVorganic extra-firm tofu
p220
(g5
tp221
sVrogan josh curry paste
p222
(g5
tp223
sVfew extra-virgin olive oil
p224
(g5
tp225
sVparmesan cheese basil
p226
(g5
tp227
sVfrac maple syrup
p228
(g5
tp229
sVbig pinch sea salt
p230
(g5
tp231
sVmozzarella
p232
(g5
tp233
sVdry
p234
(g5
tp235
sVseasoned salt
p236
(g5
tp237
sVlitre pint vegetable stock
p238
(g5
tp239
sVfirm white fish
p240
(g5
tp241
sVamaretti cooky
p242
(g5
tp243
sVground cayenne pepper
p244
(g5
tp245
sVsesame paste
p246
(g5
tp247
sVstevia
p248
(g5
tp249
sVcracked pepper
p250
(g5
tp251
sVseveral thyme sprig
p252
(g5
tp253
sVghee extra-virgin olive oil
p254
(g5
tp255
sVwhole allspice berry
p256
(g5
tp257
sVwhole whole
p258
(g5
tp259
sVball store-bought whole-wheat pizza dough
p260
(g5
tp261
sS'pork sirloin roast'
p262
(S'$ 1.885 per pound/453.6 grams'
p263
S'this price may be outdated'
p264
tp265
sVcognac brandy
p266
(g5
tp267
sVshoyu soy sauce
p268
(g5
tp269
sVorganic edamame
p270
(g5
tp271
sVbunch washed rinsed arugula
p272
(g5
tp273
sVsea salt black pepper
p274
(g5
tp275
sVvegetable oil
p276
(g5
tp277
sVitalian salad dressing
p278
(g5
tp279
sVtahini sesame seed paste
p280
(g5
tp281
sVspinach packed
p282
(g5
tp283
sVcanola
p284
(g5
tp285
sVcaramel topping
p286
(g5
tp287
sVthumb-sized piece root ginger
p288
(g5
tp289
sVadd some crunch dill pickle
p290
(g5
tp291
sVguajillo pepper see note
p292
(g5
tp293
sVpackage prepared chocolate frosting
p294
(g5
tp295
sVjulia
p296
(g5
tp297
sVsachet fast-action easy-blend yeast
p298
(g5
tp299
sVplus coarse kosher salt
p300
(g5
tp301
sVfluid beer
p302
(g5
tp303
sVold fashioned oat gluten-free oat
p304
(g5
tp305
sVindian curry powder
p306
(g5
tp307
sVfrac whole mustard seed
p308
(g5
tp309
sVpumpkin-pie spice
p310
(g5
tp311
sVslim young leek
p312
(g5
tp313
sVindividually wrapped caramel
p314
(g5
tp315
sVmedium-sized rutabaga also called swede
p316
(g5
tp317
sVcole slaw mix
p318
(g5
tp319
sVspear asparagus
p320
(g5
tp321
sVbeet juice*
p322
(g5
tp323
sVolive oil gram
p324
(g5
tp325
sVphiladelphia cream cheese
p326
(g5
tp327
sVancho chile pepper
p328
(g5
tp329
sVjalapeno pepper diced
p330
(g5
tp331
sVjalapeo peppers*
p332
(g5
tp333
sVfrac pickled jalapeos
p334
(g5
tp335
sVpiece ginger root
p336
(g5
tp337
sVblueberry
p338
(g5
tp339
sVinch piece ginger
p340
(g5
tp341
sVgarlic scape
p342
(g5
tp343
sVlasagne noodle
p344
(g5
tp345
sVpackage philadelphia cream cheese
p346
(g5
tp347
sVfreshly tarragon
p348
(g5
tp349
sV-pound butternut squash
p350
(g5
tp351
sVchilli
p352
(g5
tp353
sVporter stout beer
p354
(g5
tp355
sVwhite turnip
p356
(g5
tp357
sVherb any combination basil
p358
(g5
tp359
sVvanilla
p360
(g5
tp361
sVmore olive oil drizzle
p362
(g5
tp363
sVflaked almond
p364
(g5
tp365
sVpecan
p366
(g5
tp367
sVcoarsely peeled daikon
p368
(g5
tp369
sVwhite sesame seed
p370
(g5
tp371
sVfrac unsweetened coconut flakes*
p372
(g5
tp373
sVgreat-tasting broth
p374
(g5
tp375
sVsweet pointed pepper
p376
(g5
tp377
sVtopping mini
p378
(g5
tp379
sVyellow squash
p380
(g5
tp381
sVabout rolos
p382
(g5
tp383
sVwhite fish such tilapia
p384
(g5
tp385
sVparing knife
p386
(g5
tp387
sVfennel salt*
p388
(g5
tp389
sVbunch lacinato kale
p390
(g5
tp391
sVwhole cilantro
p392
(g5
tp393
sVfrac kale
p394
(g5
tp395
sVserve toasted pita
p396
(g5
tp397
sVbottle root beer
p398
(g5
tp399
sVroasted tahini
p400
(g5
tp401
sVfinely jalapeno pepper
p402
(g5
tp403
sS'crackers'
p404
(S'$ 0.832 per lb. '
p405
g264
tp406
sVplus unsweetened cocoa
p407
(g5
tp408
sV-ounce tilapia fillet
p409
(g5
tp410
sVentirely optional parmesan cheese
p411
(g5
tp412
sS'vodka'
p413
(S'$ 8.369 per 1 liter '
p414
g264
tp415
sVgruyere swiss cheese
p416
(g5
tp417
sVextra-firm tofu
p418
(g5
tp419
sVscotch bonnet pepper
p420
(g5
tp421
sVtbps olive oil
p422
(g5
tp423
sVfour -ounce bottle cream soda
p424
(g5
tp425
sVfreshly ground white pepper
p426
(g5
tp427
sVcrme frache sour cream
p428
(g5
tp429
sVclam mussel
p430
(g5
tp431
sVhoney
p432
(g5
tp433
sVvegetable oil*
p434
(g5
tp435
sVcotija
p436
(g5
tp437
sVcabot pepper jack light
p438
(g5
tp439
sVbarilla no-boil lasagne noodle
p440
(g5
tp441
sVfrac sliced shelled pecan
p442
(g5
tp443
sVbig coconut flake
p444
(g5
tp445
sVfluid jigger triple sec liqueur
p446
(g5
tp447
sVblackberry puree
p448
(g5
tp449
sVmedium-hot red pepper
p450
(g5
tp451
sVblue cheese dressing
p452
(g5
tp453
sVplus pinch fine salt
p454
(g5
tp455
sVbox box vanilla pudding
p456
(g5
tp457
sVpacket yeast
p458
(g5
tp459
sVgoat cheese cheese
p460
(g5
tp461
sVwhole mustard seed
p462
(g5
tp463
sVmore
p464
(g5
tp465
sVfudge
p466
(g5
tp467
sVwhole cardamom pod
p468
(g5
tp469
sVarla dofino dill havarti
p470
(g5
tp471
sVwashed spinach leaf
p472
(g5
tp473
sVdelallo sweet tangy sun-dried pepper
p474
(g5
tp475
sVplus gram
p476
(g5
tp477
sVground flaxseed flaxseed meal
p478
(g5
tp479
sVmaple extract
p480
(g5
tp481
sV-inch-by- -feet sheet heavy-duty aluminum foil
p482
(g5
tp483
sVbatch buttercream frosting
p484
(g5
tp485
sVred sprinkle
p486
(g5
tp487
sVbatch cilantro lime crema see below
p488
(g5
tp489
sVwhole turnip
p490
(g5
tp491
sVsalsa
p492
(g5
tp493
sVsquare semi-sweet chocolate
p494
(g5
tp495
sVdark chocolate
p496
(g5
tp497
sVsalad green
p498
(g5
tp499
sVgood-quality olive oil
p500
(g5
tp501
sVskin-on salmon filet
p502
(g5
tp503
sVchilled
p504
(g5
tp505
sVwhole eggplant
p506
(g5
tp507
sValmond extract
p508
(g5
tp509
sVjalapeno bird eye chilies
p510
(g5
tp511
sVancho chilli see tip
p512
(g5
tp513
sVreduced fat sour cream
p514
(g5
tp515
sV-ounce bottle white beer
p516
(g5
tp517
sVarrowroot powder
p518
(g5
tp519
sVblack olive
p520
(g5
tp521
sVgreen
p522
(g5
tp523
sVbottle mccormick red food color
p524
(g5
tp525
sVhazelnut chard ravioli salad
p526
(g5
tp527
sVbaking chocolate cacao
p528
(g5
tp529
sVcaper brine
p530
(g5
tp531
sVrum extract
p532
(g5
tp533
sVfrac packed cilantro leaf cilantro hater
p534
(g5
tp535
sVfrac flat-leaf parsley
p536
(g5
tp537
sS'wine'
p538
(S'$ 14.301 per 1 liter '
p539
tp540
sVspanish extra virgin olive oil
p541
(g5
tp542
sVsliced red bell pepper
p543
(g5
tp544
sVtwo mild green enchilada sauce
p545
(g5
tp546
sVbit flaky sea salt
p547
(g5
tp548
sVmarcona almond toasted almond
p549
(g5
tp550
sVmuffin
p551
(g5
tp552
sVfeta cheese about
p553
(g5
tp554
sVliter good-tasting vegetable broth
p555
(g5
tp556
sVfettuccine linguine
p557
(g5
tp558
sVseveral worcestershire sauce
p559
(g5
tp560
sVbunch kale
p561
(g5
tp562
sVcatfish fillet
p563
(g5
tp564
sVagave honey
p565
(g5
tp566
sVquantity white sauce
p567
(g5
tp568
sVflat leaf parsley
p569
(g5
tp570
sVwhole sweet spicy pickle
p571
(g5
tp572
sVchipotle chili pepper adobo
p573
(g5
tp574
sVblanched hazelnut
p575
(g5
tp576
sVfew thin ginger
p577
(g5
tp578
sVfine-ground white pepper
p579
(g5
tp580
sVaged red vine vinegar
p581
(g5
tp582
sVdozen garlic
p583
(g5
tp584
sV-ounce whole berry cranberry sauce
p585
(g5
tp586
sVraspberry jam
p587
(g5
tp588
sVavocado
p589
(g5
tp590
sVbiscoff cooky
p591
(g5
tp592
sVwhole tortilla
p593
(g5
tp594
sVfig
p595
(g5
tp596
sVpre-made coconut pudding
p597
(g5
tp598
sVpoblano chile
p599
(g5
tp600
sVthin mint girl scout cooky
p601
(g5
tp602
sVcayenne tabasco
p603
(g5
tp604
sVspicy mustard
p605
(g5
tp606
sVfrac vanilla extract
p607
(g5
tp608
sS'coffee'
p609
(S'$ 4.221 per lb. '
p610
tp611
sVred food coloring
p612
(g5
tp613
sVadobo sauce
p614
(g5
tp615
sVinstructionsin high powdered blender combine basil
p616
(g5
tp617
sVcoconut oil olive oil
p618
(g5
tp619
sVfinely italian parsley leaf
p620
(g5
tp621
sVfennel bulb
p622
(g5
tp623
sVcool whip
p624
(g5
tp625
sVbulb fennel
p626
(g5
tp627
sVwhite whine
p628
(g5
tp629
sVfinely cheese
p630
(g5
tp631
sS'bread'
p632
(S'$ 1.461 per lb. '
p633
tp634
sVgenoa salami
p635
(g5
tp636
sVmichter
p637
(g5
tp638
sVricotta cheese whole low-fat fine
p639
(g5
tp640
sVthyme
p641
(g5
tp642
sS'potatoes'
p643
(S'$ 0.58 per lb. '
p644
tp645
sVjarred red salsa
p646
(g5
tp647
sVsupermarket pack bunch basil
p648
(g5
tp649
sVscant fine grained sea salt
p650
(g5
tp651
sV-ounce marshmallow creme
p652
(g5
tp653
sVapricot jam
p654
(g5
tp655
sVfilling
p656
(g5
tp657
sV-ounce skinless
p658
(g5
tp659
sVjalapeno chilies
p660
(g5
tp661
sVrosemary
p662
(g5
tp663
sVavocado chunk
p664
(g5
tp665
sVpack biscotti
p666
(g5
tp667
sVfrac honey
p668
(g5
tp669
sVground mexican chocolate
p670
(g5
tp671
sVallspice
p672
(g5
tp673
sVfew bay leaf
p674
(g5
tp675
sVheaped smoked paprika
p676
(g5
tp677
sVquick cooking oat
p678
(g5
tp679
sV-ounce yellow curry paste
p680
(g5
tp681
sVpacked basil leaf leaf
p682
(g5
tp683
sVwhole anchovy filet
p684
(g5
tp685
sVprawn
p686
(g5
tp687
sVcooking spray
p688
(g5
tp689
sVunbaked pie crust
p690
(g5
tp691
sVmixed herb
p692
(g5
tp693
sVchipotle chile
p694
(g5
tp695
sVinstructionsusing measure
p696
(g5
tp697
sVtwo pinch salt
p698
(g5
tp699
sVcrisp
p700
(g5
tp701
sVjalapeo chili
p702
(g5
tp703
sVcouple pinch fine-grain sea salt
p704
(g5
tp705
sVkorma paste
p706
(g5
tp707
sVfrac fennel bulb
p708
(g5
tp709
sVbottle passata
p710
(g5
tp711
sVoatmeal stout guinness stout
p712
(g5
tp713
sVgaram masala
p714
(g5
tp715
sVzest lime
p716
(g5
tp717
sVpint sour cream
p718
(g5
tp719
sVswiss cheese
p720
(g5
tp721
sV-ounce pumpkin pure
p722
(g5
tp723
sVfrac liquid smoke any flavor
p724
(g5
tp725
sVstick rosemary
p726
(g5
tp727
sVfew pata negra
p728
(g5
tp729
sVpiece chunk ginger
p730
(g5
tp731
sVsnipped chive
p732
(g5
tp733
sVchocolate sandwich cooky with creme filling
p734
(g5
tp735
sVundyed smoked haddock
p736
(g5
tp737
sValmond with skin
p738
(g5
tp739
sVscant extra virgin olive oil
p740
(g5
tp741
sVpacket active dry yeast
p742
(g5
tp743
sVcaramelized fennel olive made slicing fennel thinly
p744
(g5
tp745
sS'grapes'
p746
(S'$ 3.481 per lb. '
p747
tp748
sVplenty toast
p749
(g5
tp750
sVpeeled finely ginger from about -inch piece
p751
(g5
tp752
sVquartered kalamata olive
p753
(g5
tp754
sVdry yeast
p755
(g5
tp756
sVprepared ranch dressing
p757
(g5
tp758
sVtabasco
p759
(g5
tp760
sVbig cauliflower stem
p761
(g5
tp762
sVthin mint cooky
p763
(g5
tp764
sVherb equal part thyme
p765
(g5
tp766
sVpumpkin pie filling
p767
(g5
tp768
sVstore-bought flatbread
p769
(g5
tp770
sVfritter
p771
(g5
tp772
sVraisin
p773
(g5
tp774
sVpassata
p775
(g5
tp776
sVcube cream cheese
p777
(g5
tp778
sVmild olive oil spray
p779
(g5
tp780
sVtwo thumb-size piece root ginger
p781
(g5
tp782
sVheaped turmeric
p783
(g5
tp784
sVlongish red bell pepper
p785
(g5
tp786
sVseashell pasta
p787
(g5
tp788
sV-ounce green chili
p789
(g5
tp790
sVfrac dijon mustard
p791
(g5
tp792
sVskinless salmon
p793
(g5
tp794
sVplain popcorn use air-popped popcorn
p795
(g5
tp796
sVfreshly basil
p797
(g5
tp798
sVasparagus cut into piece
p799
(g5
tp800
sVherb such mint
p801
(g5
tp802
sVdear heidi
p803
(g5
tp804
sVmiso paste
p805
(g5
tp806
sVchile-garlic paste
p807
(g5
tp808
sVpimento
p809
(g5
tp810
sVwhole boneless
p811
(g5
tp812
sVtasty pretty
p813
(g5
tp814
sVbig marshmallow
p815
(g5
tp816
sS'lettuce'
p817
(S'$ 1.805 per lb. '
p818
tp819
sVtzatziki
p820
(g5
tp821
sVcrme frache clotted cream
p822
(g5
tp823
sVfinely ground black pepper
p824
(g5
tp825
sVflaked coarse sea salt
p826
(g5
tp827
sVpod cardamom
p828
(g5
tp829
sVpeeled finely ginger from -inch piece
p830
(g5
tp831
sVsemi-pearled farro
p832
(g5
tp833
sVmarjoram oregano
p834
(g5
tp835
sVglobe eggplant
p836
(g5
tp837
sVabout whole cashew
p838
(g5
tp839
sVsweetened whipped cream
p840
(g5
tp841
sVspinach
p842
(g5
tp843
sVguinness
p844
(g5
tp845
sVbarbeque sauce
p846
(g5
tp847
sV-ounce package puff pastry
p848
(g5
tp849
sVargan oil
p850
(g5
tp851
sVcajun seasoning
p852
(g5
tp853
sVapproximately
p854
(g5
tp855
sVmint extract
p856
(g5
tp857
sV-ounce box spinach
p858
(g5
tp859
sVspice mixture*
p860
(g5
tp861
sVcreme cacao liqueur
p862
(g5
tp863
sVcoarsely cilantro
p864
(g5
tp865
sVmuenster cheese
p866
(g5
tp867
sVcubed feta
p868
(g5
tp869
sVplus heavy cream
p870
(g5
tp871
sVbrown green lentil
p872
(g5
tp873
sVtrinket charm
p874
(g5
tp875
sVcornflour
p876
(g5
tp877
sVhoney agave nectar maple syrup
p878
(g5
tp879
sVkalamata olive
p880
(g5
tp881
sVsmoked hungarian sweet paprika
p882
(g5
tp883
sVroasted winter squash*
p884
(g5
tp885
sVhazelnut
p886
(g5
tp887
sVbittersweet semisweet chocolate
p888
(g5
tp889
sVcrumbled cheese
p890
(g5
tp891
sVcrumbled cotija cheese
p892
(g5
tp893
sVceltic coarse sea salt
p894
(g5
tp895
sVpluots
p896
(g5
tp897
sVfirm-ripe avocado
p898
(g5
tp899
sVmarinara pizza sauce
p900
(g5
tp901
sVsamoa cooky
p902
(g5
tp903
sVlot black pepper lot
p904
(g5
tp905
sVlong bun
p906
(g5
tp907
sVfrac roughly
p908
(g5
tp909
sVfrac unsweetened cocoa powder
p910
(g5
tp911
sVred curry paste
p912
(g5
tp913
sVgochujang
p914
(g5
tp915
sVcanned pumpkin
p916
(g5
tp917
sVwhole taco shell
p918
(g5
tp919
sVbaking sheet
p920
(g5
tp921
sVwhole pumpkin
p922
(g5
tp923
sVjarred marinara sauce
p924
(g5
tp925
sVcayenne pepper more
p926
(g5
tp927
sVmaggi soy sauce
p928
(g5
tp929
sVskinless
p930
(g5
tp931
sVmalibu
p932
(g5
tp933
sVginger
p934
(g5
tp935
sVnub ginger
p936
(g5
tp937
sVflaked coconut
p938
(g5
tp939
sVplain yoghurt
p940
(g5
tp941
sVmedium-sized turnip
p942
(g5
tp943
sV-ounce marinated artichoke heart
p944
(g5
tp945
sVpasta used delallo organic whole wheat farfalle
p946
(g5
tp947
sVmint
p948
(g5
tp949
sVgood mozzarella
p950
(g5
tp951
sVtube refrigerated pizza dough
p952
(g5
tp953
sVblue cheese salad dressing
p954
(g5
tp955
sVsized garlic
p956
(g5
tp957
sVgrapeseed
p958
(g5
tp959
sVcheese your choice
p960
(g5
tp961
sVjalapeno*
p962
(g5
tp963
sVturn freshly ground black pepper
p964
(g5
tp965
sVitalian herb seasoning
p966
(g5
tp967
sVfluid limeade concentrate
p968
(g5
tp969
sVspreadable jam
p970
(g5
tp971
sVcoarsely salted pretzel
p972
(g5
tp973
sVpretzel stick
p974
(g5
tp975
sVpinch celtic sea salt
p976
(g5
tp977
sVraisin cranberry
p978
(g5
tp979
sVscant table salt
p980
(g5
tp981
sVfrac honey maple syrup
p982
(g5
tp983
sVchipotle mayo
p984
(g5
tp985
sVgravy
p986
(g5
tp987
sVdrained pimento
p988
(g5
tp989
sVfrac coriander
p990
(g5
tp991
sVmild red chilli
p992
(g5
tp993
sVsalt more
p994
(g5
tp995
sVactive dry
p996
(g5
tp997
sVwhole red bell pepper
p998
(g5
tp999
sVmashed
p1000
(g5
tp1001
sVnatural unsweetened cocoa powder into measure
p1002
(g5
tp1003
sVwhole wheat pita
p1004
(g5
tp1005
sVswiss
p1006
(g5
tp1007
sVjam preserve
p1008
(g5
tp1009
sVseveral parsley sprig
p1010
(g5
tp1011
sVpeppercorn
p1012
(g5
tp1013
sVfrac nutmeg
p1014
(g5
tp1015
sVcoarse breadcrumb
p1016
(g5
tp1017
sVquart low sodium vegetable broth
p1018
(g5
tp1019
sVpinch cumin powder
p1020
(g5
tp1021
sVgreen curry paste
p1022
(g5
tp1023
sVtub philadelphia cheese
p1024
(g5
tp1025
sVunbleached high-gluten
p1026
(g5
tp1027
sVfrac spiced rum
p1028
(g5
tp1029
sVherb such parsley basil
p1030
(g5
tp1031
sVpizza flat baking sheet
p1032
(g5
tp1033
sVextract flavoring choice
p1034
(g5
tp1035
sVinto -inch
p1036
(g5
tp1037
sVmetal
p1038
(g5
tp1039
sVbottle vin santo
p1040
(g5
tp1041
sVheavy whipping cream
p1042
(g5
tp1043
sVbunch tuscan kale about total
p1044
(g5
tp1045
sVsunflower oil untoasted sesame oil
p1046
(g5
tp1047
sVpineapple
p1048
(g5
tp1049
sV-pound slab
p1050
(g5
tp1051
sVpacked spinach arugula
p1052
(g5
tp1053
sVjumbo pasta shell
p1054
(g5
tp1055
sVground ginger
p1056
(g5
tp1057
sVparmesan pecorino cheese
p1058
(g5
tp1059
sVone butternut squash
p1060
(g5
tp1061
sVunsweetened chocolate coarsely
p1062
(g5
tp1063
sVgolden beet
p1064
(g5
tp1065
sVmonterey jack cheese
p1066
(g5
tp1067
sVtequila
p1068
(g5
tp1069
sVoptional garnish freshly parmesan cheese
p1070
(g5
tp1071
sVbunch dino kale lacinato kale
p1072
(g5
tp1073
sVmozzarella provolone cheese
p1074
(g5
tp1075
sVfennel
p1076
(g5
tp1077
sVtamarind concentrate
p1078
(g5
tp1079
sVturnip swede
p1080
(g5
tp1081
sVpack feta cheese
p1082
(g5
tp1083
sVglass with tight fitting lid
p1084
(g5
tp1085
sVsunflower seed kernel
p1086
(g5
tp1087
sVfilling option
p1088
(g5
tp1089
sVoptional thinly sliced vegetable
p1090
(g5
tp1091
sVleaf lacinato kale
p1092
(g5
tp1093
sVoptional add-in garlic
p1094
(g5
tp1095
sVmore drop tabasco sauce
p1096
(g5
tp1097
sVcaper
p1098
(g5
tp1099
sVpinch pepper flake
p1100
(g5
tp1101
sVfrac lightly packed cilantro leaf
p1102
(g5
tp1103
sVpumpkin pure*
p1104
(g5
tp1105
sVchive marjoram
p1106
(g5
tp1107
sVfrac pint raspberry
p1108
(g5
tp1109
sS'sugar'
p1110
(S'$ 0.7 per lb. '
p1111
tp1112
sS'celery'
p1113
(S'$ 0.576 per lb. '
p1114
g264
tp1115
sVvegetable stock low-sodium vegetable broth
p1116
(g5
tp1117
sV-ounce diced green anaheim chile
p1118
(g5
tp1119
sVfish finger
p1120
(g5
tp1121
sVbatch easy whole wheat pizza dough
p1122
(g5
tp1123
sVchipotle
p1124
(g5
tp1125
sVsesame seed sea salt sprinkle
p1126
(g5
tp1127
sVpetal from dozen rose
p1128
(g5
tp1129
sVshelled pistachio
p1130
(g5
tp1131
sVfrac vanilla
p1132
(g5
tp1133
sVzested ginger
p1134
(g5
tp1135
sVfinely pineapple
p1136
(g5
tp1137
sVbunch mint leaf
p1138
(g5
tp1139
sVbottled balsamic vinaigrette
p1140
(g5
tp1141
sVfew sprig rosemary
p1142
(g5
tp1143
sVbunch green chard
p1144
(g5
tp1145
sVfluid
p1146
(g5
tp1147
sVpepitas
p1148
(g5
tp1149
sVchocolate syrup
p1150
(g5
tp1151
sS'apple sauce'
p1152
(S'$ 0.8 per lb. '
p1153
g264
tp1154
sVtightly packed basil leaf
p1155
(g5
tp1156
sVtoasted flaked almond
p1157
(g5
tp1158
sVmaple syrup honey
p1159
(g5
tp1160
sVflat-leaf parsley dill garnish
p1161
(g5
tp1162
sVpint lime sorbet
p1163
(g5
tp1164
sVgrilled pineapple
p1165
(g5
tp1166
sVinch cinnamon stick
p1167
(g5
tp1168
sVfrac ground cardamom
p1169
(g5
tp1170
sVchunky salsa
p1171
(g5
tp1172
sVpumpkin puree
p1173
(g5
tp1174
sV-ounce kosher salt black pepper
p1175
(g5
tp1176
sVroasted
p1177
(g5
tp1178
sVlollipop stick
p1179
(g5
tp1180
sVpunnet cherry
p1181
(g5
tp1182
sVpretzel
p1183
(g5
tp1184
sVmixed berry
p1185
(g5
tp1186
sVmixed salad green
p1187
(g5
tp1188
sVbox after eight
p1189
(g5
tp1190
sVreduced sodium vegetable stock
p1191
(g5
tp1192
sVseasoned salt such lawry
p1193
(g5
tp1194
sVpinch ground cumin
p1195
(g5
tp1196
sVdiced shallot
p1197
(g5
tp1198
sVlitre spiced pickling vinegar
p1199
(g5
tp1200
sS'steak'
p1201
(S'$ 5.856 per lb. '
p1202
tp1203
sV-inch
p1204
(g5
tp1205
sVjumbo shrimp
p1206
(g5
tp1207
sVheaping cajun seasoning
p1208
(g5
tp1209
sVpackage lasagna noodle
p1210
(g5
tp1211
sVgood-quality extra-virgin olive
p1212
(g5
tp1213
sVpackage driscoll raspberry
p1214
(g5
tp1215
sVfreshly ground black pepper plus more
p1216
(g5
tp1217
sVlemonade
p1218
(g5
tp1219
sVcoffee-flavored liqueur
p1220
(g5
tp1221
sVplus beer
p1222
(g5
tp1223
sVfrac boneless
p1224
(g5
tp1225
sVbottle french dressing
p1226
(g5
tp1227
sVinstructionsin saucepan
p1228
(g5
tp1229
sVpico gallo
p1230
(g5
tp1231
sVbakding powder
p1232
(g5
tp1233
sVfine grain sea salt freshly ground pepper
p1234
(g5
tp1235
sVsmall-to-medium bundle
p1236
(g5
tp1237
sVminute tapioca
p1238
(g5
tp1239
sVhalloween-colored chocolate sandwich cooky
p1240
(g5
tp1241
sVnestle lechera
p1242
(g5
tp1243
sVslotted
p1244
(g5
tp1245
sVjumbo black olive
p1246
(g5
tp1247
sVfrac agave nectar more
p1248
(g5
tp1249
sVherbes provence
p1250
(g5
tp1251
sVblue diamond wasabi soy sauce almond
p1252
(g5
tp1253
sVpacked stemmed coarsely kale chard leaf
p1254
(g5
tp1255
sVprune
p1256
(g5
tp1257
sS'yogurt'
p1258
(S'$ 0.601 per 8 oz. '
p1259
g264
tp1260
sVgolden maple syrup
p1261
(g5
tp1262
sVgood-quality dark chocolate
p1263
(g5
tp1264
sVlight agave nectar
p1265
(g5
tp1266
sVanchovy paste
p1267
(g5
tp1268
sVdouble pie crust
p1269
(g5
tp1270
sVfrac barbecue sauce
p1271
(g5
tp1272
sVfew splash extra virgin olive oil
p1273
(g5
tp1274
sVavocado from mexico
p1275
(g5
tp1276
sVlime simple syrup
p1277
(g5
tp1278
sVcherry pepper
p1279
(g5
tp1280
sVteasopon salt
p1281
(g5
tp1282
sVdry vermouth
p1283
(g5
tp1284
sVbox high-fiber elbow shaped pasta
p1285
(g5
tp1286
sVcocoa square baking chocolate
p1287
(g5
tp1288
sVponzu soy sauce
p1289
(g5
tp1290
sVfeta cheese
p1291
(g5
tp1292
sV-ounce guinness draught
p1293
(g5
tp1294
sVmahimahi
p1295
(g5
tp1296
sVdry sherry vermouth
p1297
(g5
tp1298
sVbarbecue sauce
p1299
(g5
tp1300
sVtabasco sauce
p1301
(g5
tp1302
sVjalape ntilde
p1303
(g5
tp1304
sVlevel sweet paprika
p1305
(g5
tp1306
sValmond pecan
p1307
(g5
tp1308
sVdill weed
p1309
(g5
tp1310
sVeggnog
p1311
(g5
tp1312
sVlow-salt vegetable stock such kallo low-salt vegetable stock cube
p1313
(g5
tp1314
sVcouple arugula
p1315
(g5
tp1316
sV-ounce package cream cheese
p1317
(g5
tp1318
sVchilled goat cheese about goat cheese crumbles
p1319
(g5
tp1320
sVfinely mint
p1321
(g5
tp1322
sVhummus
p1323
(g5
tp1324
sVcoarsely cilantro leaf
p1325
(g5
tp1326
sVdark cocoa almond
p1327
(g5
tp1328
sVsnipped parsley
p1329
(g5
tp1330
sVlevel ground ginger
p1331
(g5
tp1332
sVpita
p1333
(g5
tp1334
sVold-fashioned rolled oat not quick-cooking
p1335
(g5
tp1336
sVcoarse salt
p1337
(g5
tp1338
sVskinless white fish fillet
p1339
(g5
tp1340
sVvirgin coconut oil
p1341
(g5
tp1342
sVlily bud
p1343
(g5
tp1344
sV-ounce good quality marinated artichoke heart
p1345
(g5
tp1346
sVolive oil
p1347
(g5
tp1348
sVmezzaluna
p1349
(g5
tp1350
sVspecial equipment food processor check amazon.com sale cuisinart food processor
p1351
(g5
tp1352
sVkahlua peppermint mocha liqueur see step
p1353
(g5
tp1354
sVvermouth
p1355
(g5
tp1356
sVtamari soy sauce
p1357
(g5
tp1358
sVmustard seed
p1359
(g5
tp1360
sVmixed tender herb such cilantro
p1361
(g5
tp1362
sVinch thick filet mignon
p1363
(g5
tp1364
sVparsley flake
p1365
(g5
tp1366
sVdiced -inch butternut squash
p1367
(g5
tp1368
sVprepared pesto
p1369
(g5
tp1370
sVground paprika
p1371
(g5
tp1372
sVarla dofino fontina cheese
p1373
(g5
tp1374
sVbrined caper
p1375
(g5
tp1376
sVcaraway seed
p1377
(g5
tp1378
sVtable salt more
p1379
(g5
tp1380
sVshiitake
p1381
(g5
tp1382
sVparsley
p1383
(g5
tp1384
sVlightly packed mint leaf
p1385
(g5
tp1386
sVbeer
p1387
(g5
tp1388
sV-ounce envelope unflavored gelatin
p1389
(g5
tp1390
sVbeet
p1391
(g5
tp1392
sVlightly packed arugula
p1393
(g5
tp1394
sVroughly zucchini summer squash zucchini squash
p1395
(g5
tp1396
sVbasil
p1397
(g5
tp1398
sVpinch salt black pepper
p1399
(g5
tp1400
sVmild chilli powder
p1401
(g5
tp1402
sVbrewed espresso
p1403
(g5
tp1404
sVreal pumpkin pure
p1405
(g5
tp1406
sVaged balsamic vinegar
p1407
(g5
tp1408
sVtamari sauce
p1409
(g5
tp1410
sVpackage puff pastry sheet
p1411
(g5
tp1412
sVsprite
p1413
(g5
tp1414
sVlow-salt soy sauce
p1415
(g5
tp1416
sVbone-in
p1417
(g5
tp1418
sVoregano optional
p1419
(g5
tp1420
sVtoasted coconut
p1421
(g5
tp1422
sVroughly blue diamond oven roasted sea salt almond
p1423
(g5
tp1424
sVchile arbol
p1425
(g5
tp1426
sVseasoning blend
p1427
(g5
tp1428
sVmarinated roasted red pepper
p1429
(g5
tp1430
sVmyzithra cheese
p1431
(g5
tp1432
sV-ounce bundle chard about leaf
p1433
(g5
tp1434
sVwhite-wine vinegar
p1435
(g5
tp1436
sVfinely dill
p1437
(g5
tp1438
sVrose petal
p1439
(g5
tp1440
sVsliced almond
p1441
(g5
tp1442
sVenglish muffin
p1443
(g5
tp1444
sVolive oil vegetable oil
p1445
(g5
tp1446
sV-inch piece unpeeled ginger
p1447
(g5
tp1448
sVwhole green bell pepper
p1449
(g5
tp1450
sVfrac lime
p1451
(g5
tp1452
sVmelted
p1453
(g5
tp1454
sVbunch spinach leaf
p1455
(g5
tp1456
sVanchos
p1457
(g5
tp1458
sVold fashioned rolled oat
p1459
(g5
tp1460
sVtorn basil
p1461
(g5
tp1462
sVbasil you have
p1463
(g5
tp1464
sVplus kosher salt
p1465
(g5
tp1466
sVsilver tequila
p1467
(g5
tp1468
sVfirmly packed flat-leaf parsley
p1469
(g5
tp1470
sVbroth
p1471
(g5
tp1472
sVground sumac*
p1473
(g5
tp1474
sVone cilantro
p1475
(g5
tp1476
sVfrac cilantro*
p1477
(g5
tp1478
sVwhole-grain mustard
p1479
(g5
tp1480
sVscant kosher salt
p1481
(g5
tp1482
sVposole hominy
p1483
(g5
tp1484
sVkosher salt freshly ground pepper
p1485
(g5
tp1486
sVquaker old fashioned oat
p1487
(g5
tp1488
sVpack gnocchi
p1489
(g5
tp1490
sVfrac marzetti light caesar vinaigrette
p1491
(g5
tp1492
sVmarjoram leaf
p1493
(g5
tp1494
sVcherry syrup drained
p1495
(g5
tp1496
sVfrac kosher salt
p1497
(g5
tp1498
sVserrano chile
p1499
(g5
tp1500
sVsummer squash zucchini yellow squash about
p1501
(g5
tp1502
sV-inch-cubed yellow red seedless watermelon flesh
p1503
(g5
tp1504
sVserrano chili
p1505
(g5
tp1506
sVrigatoni
p1507
(g5
tp1508
sV-inch long piece horseradish root
p1509
(g5
tp1510
sVzucchini from about whole
p1511
(g5
tp1512
sVherb combination mint
p1513
(g5
tp1514
sVbaking powder
p1515
(g5
tp1516
sVsour cream plain
p1517
(g5
tp1518
sVsliced jalapeno
p1519
(g5
tp1520
sVfrac packed
p1521
(g5
tp1522
sVpack coriander
p1523
(g5
tp1524
sVbig drizzle good extra-virgin olive oil
p1525
(g5
tp1526
sVfiltered
p1527
(g5
tp1528
sVground freshly nutmeg
p1529
(g5
tp1530
sVpacket mccormick gluten free taco seasoning
p1531
(g5
tp1532
sVtoasted
p1533
(g5
tp1534
sVchipotle powder
p1535
(g5
tp1536
sVpapaya
p1537
(g5
tp1538
sVpiece ginger
p1539
(g5
tp1540
sVground black pepper
p1541
(g5
tp1542
sVtahitian vanilla extract
p1543
(g5
tp1544
sVfew basil leaf
p1545
(g5
tp1546
sVtops
p1547
(lp1548
Vbottoms of a bunch of celery
p1549
asVsalsa ranchera your favourite salsa
p1550
(g5
tp1551
sVespresso powder
p1552
(g5
tp1553
sVbundle leaf are very wide
p1554
(g5
tp1555
sVgarlic
p1556
(g5
tp1557
sVherb bouquet*
p1558
(g5
tp1559
sS'tuna'
p1560
(S'$ 2.043 per lb. '
p1561
g264
tp1562
sVwhole unbaked pie crust use sylvia perfect pie crust recipe
p1563
(g5
tp1564
sVculinary lavender
p1565
(g5
tp1566
sS'butter'
p1567
(S'$ 2.108 per lb. '
p1568
g264
tp1569
sVcurrant raisin
p1570
(g5
tp1571
sVextra gingersnap
p1572
(g5
tp1573
sVtahini roasted
p1574
(g5
tp1575
sVred chile
p1576
(g5
tp1577
sVextra-firm nigari tofu
p1578
(g5
tp1579
sVpinch two nutmeg
p1580
(g5
tp1581
sVmaraschino liqueur
p1582
(g5
tp1583
sVfrac marzetti asian sesame salad accent
p1584
(g5
tp1585
sVdiced pineapple
p1586
(g5
tp1587
sVleaf basil
p1588
(g5
tp1589
sVfine salt
p1590
(g5
tp1591
sVgarnish cilantro red pepper flake
p1592
(g5
tp1593
sVextra-virgin olive oil olive oil
p1594
(g5
tp1595
sVpicante sauce
p1596
(g5
tp1597
sVunsweetened dutch-process cocoa powder
p1598
(g5
tp1599
sVkale
p1600
(g5
tp1601
sVwhole rib-eye
p1602
(g5
tp1603
sVsemi chocolate
p1604
(g5
tp1605
sVvanilla buttercream
p1606
(g5
tp1607
sVfrac chia seed
p1608
(g5
tp1609
sVfrac cayenne pepper
p1610
(g5
tp1611
sVwriting icing
p1612
(g5
tp1613
sVcheese swiss
p1614
(g5
tp1615
sVfinger length piece root ginger
p1616
(g5
tp1617
sVgood-quality dry sherry
p1618
(g5
tp1619
sVturbinado sugar-for sprinkling muffin top
p1620
(g5
tp1621
sS'ham'
p1622
(S'$ 4.259 per lb. '
p1623
tp1624
sVbunch flat-leaf spinach
p1625
(g5
tp1626
sVloosely dill
p1627
(g5
tp1628
sVcherry
p1629
(g5
tp1630
sVfood squash
p1631
(g5
tp1632
sVfrac captain morgan original spiced rum
p1633
(g5
tp1634
sVwhole andes mint
p1635
(g5
tp1636
sVpecorino cheese
p1637
(g5
tp1638
sVbasil leaf more
p1639
(g5
tp1640
sVdark semi-sweet chocolate
p1641
(g5
tp1642
sVcognac
p1643
(g5
tp1644
sVbanger
p1645
(g5
tp1646
sVabout raspberry jam
p1647
(g5
tp1648
sVbottle barbeque sauce
p1649
(g5
tp1650
sVmayonnaise salad dressing
p1651
(g5
tp1652
sVfood coloring
p1653
(g5
tp1654
sVfettuccine noodle
p1655
(g5
tp1656
sVacorn squash
p1657
(g5
tp1658
sVaubergine
p1659
(g5
tp1660
sVsoba noodle
p1661
(g5
tp1662
sVgood-quality dark chocolate cocoa solid
p1663
(g5
tp1664
sVmayo
p1665
(g5
tp1666
sVcoconut oil quality vegetable oil
p1667
(g5
tp1668
sVtoasted hazelnut
p1669
(g5
tp1670
sVbailey
p1671
(g5
tp1672
sVfrac tahini
p1673
(g5
tp1674
sV-ounce block cream cheese
p1675
(g5
tp1676
sVcanola olive oil
p1677
(g5
tp1678
sVpackage storebought pie crust
p1679
(g5
tp1680
sV-ml bottle chilled brut champagne
p1681
(g5
tp1682
sVsea salt freshly ground pepper
p1683
(g5
tp1684
sVrefrigerated sauerkraut
p1685
(g5
tp1686
sVone sized pumpkin
p1687
(g5
tp1688
sVbuckwheat soba japanese-style noodle vermicelli noodle
p1689
(g5
tp1690
sVfrac coconut
p1691
(g5
tp1692
sVroughly almond
p1693
(g5
tp1694
sVmirin
p1695
(g5
tp1696
sVroasted red pepper from
p1697
(g5
tp1698
sVspiral-shaped pasta
p1699
(g5
tp1700
sVherb such rosemary
p1701
(g5
tp1702
sVcuring salt
p1703
(g5
tp1704
sVwhole black peppercorn
p1705
(g5
tp1706
sVwhole bay leaf
p1707
(g5
tp1708
sVfluid tequila
p1709
(g5
tp1710
sVcrisco
p1711
(g5
tp1712
sVfinely cilantro
p1713
(g5
tp1714
sVfinely serrano
p1715
(g5
tp1716
sVunsmoked boneless gammon joint
p1717
(g5
tp1718
sVwhole wheat breadcrumb
p1719
(g5
tp1720
sVpinch freshly nutmeg
p1721
(g5
tp1722
sVground oregano
p1723
(g5
tp1724
sVwhole leek
p1725
(g5
tp1726
sVextra parsley
p1727
(g5
tp1728
sVpack crumbly goat cheese
p1729
(g5
tp1730
sVmixed berry used blackberry
p1731
(g5
tp1732
sVmariquita blog
p1733
(g5
tp1734
sVfrac mozzarella cheese
p1735
(g5
tp1736
sVsoftened cream cheese
p1737
(g5
tp1738
sVlumpia wrapper
p1739
(g5
tp1740
sVtaco sauce
p1741
(g5
tp1742
sV-inch diameter
p1743
(g5
tp1744
sValmond extract did n't add this
p1745
(g5
tp1746
sVmexican chocolate tablet
p1747
(g5
tp1748
sVwhole recipe pizza crust
p1749
(g5
tp1750
sVcaramel icing
p1751
(g5
tp1752
sVokra
p1753
(g5
tp1754
sVlite soy sauce tamari sauce
p1755
(g5
tp1756
sVpeeled ginger from about -ounce piece
p1757
(g5
tp1758
sVpackage strawberry flavored gelatin
p1759
(g5
tp1760
sVlightly packed cilantro leaf stem
p1761
(g5
tp1762
sVchia seed
p1763
(g5
tp1764
sVwhole chocolate sandwich cooky
p1765
(g5
tp1766
sVbroken pretzel stick
p1767
(g5
tp1768
sVpackage linguine noodle
p1769
(g5
tp1770
sVhigh quality parmesan cheese
p1771
(g5
tp1772
sVpacked spinach
p1773
(g5
tp1774
sVwhole green red bell pepper
p1775
(g5
tp1776
sS'corn'
p1777
(S'$ 0.713 per lb. '
p1778
g264
tp1779
sVpint heavy cream
p1780
(g5
tp1781
sVmango chutney
p1782
(g5
tp1783
sVflat-leaf kale
p1784
(g5
tp1785
sVsprig italian parsley
p1786
(g5
tp1787
sVfew pinch smoked paprika
p1788
(g5
tp1789
sS'american processed cheese'
p1790
(S'$ 5.566 per lb. '
p1791
tp1792
sV-or- -ounce container ricotta cheese
p1793
(g5
tp1794
sVwhole butternut squash
p1795
(g5
tp1796
sVground pepper
p1797
(g5
tp1798
sVwheat germ
p1799
(g5
tp1800
sVquart low-sodium vegetable broth
p1801
(g5
tp1802
sVscoop plain vanilla protein powder
p1803
(g5
tp1804
sVoreo
p1805
(g5
tp1806
sVdill optional
p1807
(g5
tp1808
sVlingonberry
p1809
(g5
tp1810
sVfinely lime
p1811
(g5
tp1812
sVjalapeo pepper
p1813
(g5
tp1814
sVcanola oil
p1815
(g5
tp1816
sVspice-kissed pumpkin pie
p1817
(g5
tp1818
sVsansho pepper
p1819
(g5
tp1820
sVchilli sauce
p1821
(g5
tp1822
sVpinch sea salt
p1823
(g5
tp1824
sVparmigiano-reggiano
p1825
(g5
tp1826
sVplus
p1827
(g5
tp1828
sVclementine
p1829
(g5
tp1830
sVkale chard
p1831
(g5
tp1832
sVpomegranate aril
p1833
(g5
tp1834
sVrussian dressing thousand island dressing
p1835
(g5
tp1836
sVbread-and-butter pickle
p1837
(g5
tp1838
sVflatbread
p1839
(g5
tp1840
sVregular garlic
p1841
(g5
tp1842
sVred beet
p1843
(g5
tp1844
sVunsalted
p1845
(g5
tp1846
sVwhole-grain breadcrumb
p1847
(g5
tp1848
sVinch ginger
p1849
(g5
tp1850
sVlong skewer
p1851
(g5
tp1852
sVkosher salt ground pepper
p1853
(g5
tp1854
sVfrac baking soda
p1855
(g5
tp1856
sVburger bun
p1857
(g5
tp1858
sVfinely
p1859
(g5
tp1860
sVglass chardonnay
p1861
(g5
tp1862
sVwrap
p1863
(g5
tp1864
sVwhole sweet gerkins
p1865
(g5
tp1866
sVhalf-and-half
p1867
(g5
tp1868
sVdutch-processed cocoa powder
p1869
(g5
tp1870
sVbig cilantro leaf
p1871
(g5
tp1872
sVbunch thin asparagus spear
p1873
(g5
tp1874
sVedible flowers*
p1875
(g5
tp1876
sVolive vegetable oil
p1877
(g5
tp1878
sVfrac bunch crinkly purple kale green kale
p1879
(g5
tp1880
sVorganic boneless
p1881
(g5
tp1882
sVblue cheese
p1883
(g5
tp1884
sVmexican-style cheese blend
p1885
(g5
tp1886
sVextra zest
p1887
(g5
tp1888
sVcalifornia avocado
p1889
(g5
tp1890
sVregular quick oat
p1891
(g5
tp1892
sVsalted caramel chocolate
p1893
(g5
tp1894
sVred miso white miso
p1895
(g5
tp1896
sVcoarsely apricot kernel
p1897
(g5
tp1898
sVgin
p1899
(g5
tp1900
sVdiamond crystal kosher salt
p1901
(g5
tp1902
sVsprig rosemary
p1903
(g5
tp1904
sVdry mustard
p1905
(g5
tp1906
sVfinely scallion
p1907
(g5
tp1908
sVoaty biscuit
p1909
(g5
tp1910
sVquart vegetable oil
p1911
(g5
tp1912
sVaged rum
p1913
(g5
tp1914
sVpussers rum
p1915
(g5
tp1916
sVquart plain air popped popcorn
p1917
(g5
tp1918
sVtabasco garlic pepper sauce
p1919
(g5
tp1920
sVcoriander parsley flatbread
p1921
(g5
tp1922
sVfrac smoked paprika
p1923
(g5
tp1924
sVenvelope fleischmann rapidrise yeast
p1925
(g5
tp1926
sVtuscan kale regular curly kale
p1927
(g5
tp1928
sVbunch rosemary
p1929
(g5
tp1930
sVwhole-milk mozzarella cheese
p1931
(g5
tp1932
sVoreo cooky
p1933
(g5
tp1934
sVsprinkling toasted sunflower seed
p1935
(g5
tp1936
sVtarragon leaf
p1937
(g5
tp1938
sVsheet phyllo dough
p1939
(g5
tp1940
sVshelled hazelnut
p1941
(g5
tp1942
sVtempeh
p1943
(g5
tp1944
sVpackage ounch instant vanilla pudding mix
p1945
(g5
tp1946
sVoptional whole pomegranate seed rose petal
p1947
(g5
tp1948
sVpaprika
p1949
(g5
tp1950
sVsour cherry
p1951
(g5
tp1952
sVfish sauce such nam pla nuoc nam optional
p1953
(g5
tp1954
sVswig rum
p1955
(g5
tp1956
sVcornmeal crunch
p1957
(g5
tp1958
sVscant rosewater
p1959
(g5
tp1960
sVcreme fraiche
p1961
(g5
tp1962
sVinstructionsin bowl
p1963
(g5
tp1964
sVflat-leaf parsley leaf
p1965
(g5
tp1966
sVchestnut
p1967
(g5
tp1968
sV-ounce chocolate bar such hershey
p1969
(g5
tp1970
sVfat cream cheese
p1971
(g5
tp1972
sVfrac jalapeo
p1973
(g5
tp1974
sVhigh-quality balsamic vinegar
p1975
(g5
tp1976
sVdijon-style mustard
p1977
(g5
tp1978
sVsheet puff pastry
p1979
(g5
tp1980
sVpacket dry fajita seasoning
p1981
(g5
tp1982
sVfrac old-fashioned rolled oat
p1983
(g5
tp1984
sVthyme thyme flower
p1985
(g5
tp1986
sVmiso
p1987
(g5
tp1988
sVbaguette
p1989
(g5
tp1990
sVcanned jarred dulce leche preferably nestl
p1991
(g5
tp1992
sVcoarse cornmeal
p1993
(g5
tp1994
sVpepperjack cheese
p1995
(g5
tp1996
sVsweet red bell pepper seeded
p1997
(g5
tp1998
sVprepared mustard
p1999
(g5
tp2000
sVpre-made
p2001
(g5
tp2002
sVoptional additional garnish cilantro red pepper flake
p2003
(g5
tp2004
sVtinned chickpea
p2005
(g5
tp2006
sVcream coconut
p2007
(g5
tp2008
sVwebsite
p2009
(g5
tp2010
sVwhole chilies any variety
p2011
(g5
tp2012
sVpackage puff pastry*
p2013
(g5
tp2014
sVwhole jalapeno
p2015
(g5
tp2016
sVmore salt pepper
p2017
(g5
tp2018
sVleek
p2019
(g5
tp2020
sVwhipped cream
p2021
(g5
tp2022
sVserrano pepper diced
p2023
(g5
tp2024
sVlow fat cottage cheese
p2025
(g5
tp2026
sVactive dry instant yeast
p2027
(g5
tp2028
sVmixed summer berry
p2029
(g5
tp2030
sVtable salt
p2031
(g5
tp2032
sVpinch freshly ground white pepper
p2033
(g5
tp2034
sVunsweetened cocoa use natural unsweetened cocoa
p2035
(g5
tp2036
sVspin wonderful
p2037
(g5
tp2038
sVyour favorite pizza dough-we used this
p2039
(g5
tp2040
sVone buttermilk
p2041
(g5
tp2042
sVdark chocolate truffle
p2043
(g5
tp2044
sVcooking chorizo
p2045
(g5
tp2046
sVjarred vac-packed chesntnuts
p2047
(g5
tp2048
sVceltic sea salt
p2049
(g5
tp2050
sVfew big cubed tofu
p2051
(g5
tp2052
sVcotija queso fresco cheese
p2053
(g5
tp2054
sVdark soy sauce
p2055
(g5
tp2056
sVpurple beet
p2057
(g5
tp2058
sVreese piece
p2059
(g5
tp2060
sV-optional add-in
p2061
(g5
tp2062
sVequipment -inch baking pan
p2063
(g5
tp2064
sVcaraway
p2065
(g5
tp2066
sVheaped black mustard seed
p2067
(g5
tp2068
sVoven-proof saut pan cast iron pan
p2069
(g5
tp2070
sVpeppadew pepper
p2071
(g5
tp2072
sVpan brownie
p2073
(g5
tp2074
sVleek white pale-green part only
p2075
(g5
tp2076
sVfinely cilantro leaf stem
p2077
(g5
tp2078
sVground unsalted cashew
p2079
(g5
tp2080
sVseveral grind black pepper
p2081
(g5
tp2082
sVtap salt
p2083
(g5
tp2084
sVcoarsely crumbled feta cheese
p2085
(g5
tp2086
sVsachet easy-blend yeast
p2087
(g5
tp2088
sVoregano drizzle
p2089
(g5
tp2090
sS'chicken breast'
p2091
(S'$ 3.243 per lb. '
p2092
tp2093
sVoptional ingredient cheese
p2094
(g5
tp2095
sVpackage whole wheat penne
p2096
(g5
tp2097
sVkorean salted shrimp
p2098
(g5
tp2099
sVfrac whole wheat fettuccine
p2100
(g5
tp2101
sVfine-grain sea salt freshly ground black pepper
p2102
(g5
tp2103
sVwhole canned artichoke heart
p2104
(g5
tp2105
sVtable salt freshly ground black pepper
p2106
(g5
tp2107
sVadditional cheese
p2108
(g5
tp2109
sVred split lentil
p2110
(g5
tp2111
sVmahi mahi fillet
p2112
(g5
tp2113
sVmexican oregano
p2114
(g5
tp2115
sVchipotle salsa
p2116
(g5
tp2117
sValuminum free baking powder
p2118
(g5
tp2119
sVsriracha sauce
p2120
(g5
tp2121
sS'milk'
p2122
(S'$ 3.0 per gal. '
p2123
tp2124
sVfrac sake
p2125
(g5
tp2126
sVwhole garlic
p2127
(g5
tp2128
sVhershey special dark cocoa
p2129
(g5
tp2130
sVcollard green kale
p2131
(g5
tp2132
sVfrac coconut butter*
p2133
(g5
tp2134
sVpackage unflavored gelatin
p2135
(g5
tp2136
sVroasted pumpkin
p2137
(g5
tp2138
sVoregano pesto
p2139
(g5
tp2140
sVground cardamon
p2141
(g5
tp2142
sVfrac old-fashioned oat
p2143
(g5
tp2144
sVlawry seasoned salt
p2145
(g5
tp2146
sVvegetable broth
p2147
(g5
tp2148
sV-inch piece ginger
p2149
(g5
tp2150
sVcouscous
p2151
(g5
tp2152
sVfrac arrowroot starch
p2153
(g5
tp2154
sVheap parmesan
p2155
(g5
tp2156
sVhigh quality extra virgin olive oil
p2157
(g5
tp2158
sVfinely walnut
p2159
(g5
tp2160
sVfrac brown lentil
p2161
(g5
tp2162
sVicing
p2163
(g5
tp2164
sVpinch red pepper flake
p2165
(g5
tp2166
sVyeast
p2167
(g5
tp2168
sVrecipe
p2169
(g5
tp2170
sVarla dofino gouda cheese
p2171
(g5
tp2172
sVfreshly shaved parmesan
p2173
(g5
tp2174
sVbrownie
p2175
(g5
tp2176
sVbig cilantro coriander
p2177
(g5
tp2178
sVgarlic salt
p2179
(g5
tp2180
sVtube red decorating gel
p2181
(g5
tp2182
sVgruyre cheese
p2183
(g5
tp2184
sVfrac shaved parmesan
p2185
(g5
tp2186
sVwhite miso
p2187
(g5
tp2188
sVgaram masala*
p2189
(g5
tp2190
sVmargarita
p2191
(g5
tp2192
sS'peaches'
p2193
(S'$ 1.704 per lb. '
p2194
tp2195
sVlow-sodium vegetable stock
p2196
(g5
tp2197
sVdiced zucchini
p2198
(g5
tp2199
sVsweet honey mustard
p2200
(g5
tp2201
sVfrac freshly parmesan cheese
p2202
(g5
tp2203
sVpackage walker vanilla shortbread cooky from package
p2204
(g5
tp2205
sVred chili powder
p2206
(g5
tp2207
sVapproximately reserved chickpea cooking
p2208
(g5
tp2209
sVolive oil cooking spray
p2210
(g5
tp2211
sVfrac finely diced red bell pepper
p2212
(g5
tp2213
sVbuttermilk ranch dressing
p2214
(g5
tp2215
sVchocolate drop
p2216
(g5
tp2217
sVwhole hamburger bun
p2218
(g5
tp2219
sVskewer
p2220
(g5
tp2221
sVextra pecan
p2222
(g5
tp2223
sVflavoring such jam
p2224
(g5
tp2225
sVfudge sauce
p2226
(g5
tp2227
sVmore vegetable broth*
p2228
(g5
tp2229
sVmeat mixture
p2230
(g5
tp2231
sVshrimp shelled deviened
p2232
(g5
tp2233
sVhavarti cheese
p2234
(g5
tp2235
sVkosher sald
p2236
(g5
tp2237
sVloris salt caramel syrup
p2238
(g5
tp2239
sVall purpose flour*
p2240
(g5
tp2241
sVcurrant
p2242
(g5
tp2243
sVbamboo shoot
p2244
(g5
tp2245
sVsliced pimentoes
p2246
(g5
tp2247
sS'other pork '
p2248
(S'$ 2.989 per lb. '
p2249
tp2250
sVextra basil leaf
p2251
(g5
tp2252
sVthinly sliced garlic
p2253
(g5
tp2254
sVseasoned panko breadcrumb
p2255
(g5
tp2256
sVport
p2257
(g5
tp2258
sVwhole cinnamon stick
p2259
(g5
tp2260
sVcoconut flake
p2261
(g5
tp2262
sVsalmon filet
p2263
(g5
tp2264
sVpackage ladyfinger cooky
p2265
(g5
tp2266
sVwhole peppercorn
p2267
(g5
tp2268
sS'radishes '
p2269
(S'$ 1.005 per pound/453.6 grams'
p2270
g264
tp2271
sVcalamari
p2272
(g5
tp2273
sVgenerous pinch sea salt
p2274
(g5
tp2275
sVserve olive
p2276
(g5
tp2277
sVgarlic chile sauce
p2278
(g5
tp2279
sVsplash kirsch
p2280
(g5
tp2281
sVbalsamic vinaigrette
p2282
(g5
tp2283
sVdrop stevia
p2284
(g5
tp2285
sVcranberry cranberry
p2286
(g5
tp2287
sVful flax seed
p2288
(g5
tp2289
sVfrac freshly ground black pepper
p2290
(g5
tp2291
sVreserved pasta
p2292
(g5
tp2293
sVpackage size dry ranch dressing mix
p2294
(g5
tp2295
sVshaoxing dry sherry
p2296
(g5
tp2297
sVtoasted sesame seed mixed with cashew
p2298
(g5
tp2299
sVserve mint
p2300
(g5
tp2301
sVwhole kalamata olive
p2302
(g5
tp2303
sVchipotle chile powder
p2304
(g5
tp2305
sVspicy brown mustard
p2306
(g5
tp2307
sVserve torn basil
p2308
(g5
tp2309
sV-cheese italian blend
p2310
(g5
tp2311
sVmayo mixed with pesto
p2312
(g5
tp2313
sVbottle irish stout beer e.g guinness
p2314
(g5
tp2315
sVpeeled
p2316
(g5
tp2317
sVgreen chile pepper
p2318
(g5
tp2319
sVbasil pesto
p2320
(g5
tp2321
sVvanilla wafer cooky
p2322
(g5
tp2323
sVtequila mexican beer
p2324
(g5
tp2325
sVcreamy salad dressing such miracle whip
p2326
(g5
tp2327
sVwhole croissant
p2328
(g5
tp2329
sVyellow marzipan
p2330
(g5
tp2331
sVsliced diced bell pepper
p2332
(g5
tp2333
sVgreen bell pepper
p2334
(g5
tp2335
sVfrosting
p2336
(g5
tp2337
sVmountain dew soda
p2338
(g5
tp2339
sVstore-bought salsa
p2340
(g5
tp2341
sVpie dough scrap from cutting -inch pie
p2342
(g5
tp2343
sVpacket old paso fajita seasoning
p2344
(g5
tp2345
sVjarred salsa spicy best
p2346
(g5
tp2347
sVasparagus tip
p2348
(g5
tp2349
sVpowdered sugar-for serving
p2350
(g5
tp2351
sVbittersweet
p2352
(g5
tp2353
sVfrench toast
p2354
(g5
tp2355
sVfreshly ground cumin
p2356
(g5
tp2357
sVking prawn
p2358
(g5
tp2359
sVtaco seasoning store bought packet
p2360
(g5
tp2361
sVcinnamon
p2362
(g5
tp2363
sVdark green nori
p2364
(g5
tp2365
sVgood pinch chilli powder
p2366
(g5
tp2367
sVsea salt
p2368
(g5
tp2369
sVfreshly ground black pepper pinch red pepper flake
p2370
(g5
tp2371
sVfrac flaxseed oil extra-virgin olive oil
p2372
(g5
tp2373
sVwhole low-fat buttermilk
p2374
(g5
tp2375
sS'beef for stew'
p2376
(S'$ 4.699 per lb. '
p2377
tp2378
sVpimento cheese spread
p2379
(g5
tp2380
sVhigh-quality olive oil
p2381
(g5
tp2382
sVflaked unsweetened coconut
p2383
(g5
tp2384
sVpackage bow tie pasta
p2385
(g5
tp2386
sVmexican cheese
p2387
(g5
tp2388
sVfrac lukewarm
p2389
(g5
tp2390
sVplain vanilla
p2391
(g5
tp2392
sVthis dressing
p2393
(g5
tp2394
sVpink food colouring
p2395
(g5
tp2396
sVbox vegetale broth
p2397
(g5
tp2398
sVwholegrain mustard
p2399
(g5
tp2400
sVallspice berry
p2401
(g5
tp2402
sVsake
p2403
(g5
tp2404
sVchipotle paste
p2405
(g5
tp2406
sVcheese provolone
p2407
(g5
tp2408
sVpackage oreo chocolate sandwich cooky
p2409
(g5
tp2410
sVpita wedge
p2411
(g5
tp2412
sVlawry seasoning salt
p2413
(g5
tp2414
sVcascadian farm raspberry jam
p2415
(g5
tp2416
sVjam
p2417
(lp2418
Vclotted cream
p2419
asVdijon mustard your choice
p2420
(g5
tp2421
sVtorn mixed leafy green
p2422
(g5
tp2423
sVherring fillet
p2424
(g5
tp2425
sVmixed-colour pepper
p2426
(g5
tp2427
sVbutternut squash
p2428
(g5
tp2429
sVhoumous
p2430
(g5
tp2431
sVcornmeal masa
p2432
(g5
tp2433
sVpinch ground
p2434
(g5
tp2435
sVgarnish idea tiny feta cube
p2436
(g5
tp2437
sVenvelope
p2438
(g5
tp2439
sVroasted almond
p2440
(g5
tp2441
sVchocolate
p2442
(g5
tp2443
sVromano cheese
p2444
(g5
tp2445
sVpackage tortilla
p2446
(g5
tp2447
sVlevel fine sea salt
p2448
(g5
tp2449
sVpackage box vanilla instant pudding mix
p2450
(g5
tp2451
sVolive
p2452
(g5
tp2453
sVassorted cheese
p2454
(g5
tp2455
sVfrac quartered artichoke heart
p2456
(g5
tp2457
sVunsweetened coconut flake
p2458
(g5
tp2459
sV-ounce canning
p2460
(g5
tp2461
sVchocolate sauce
p2462
(g5
tp2463
sVyellow grit
p2464
(g5
tp2465
sVpasta fettuccine
p2466
(g5
tp2467
sVdark beer
p2468
(g5
tp2469
sVpackage strawberry flavored jell-o
p2470
(g5
tp2471
sValmond breeze almondmilk coconutmilk original unsweetened
p2472
(g5
tp2473
sVgood storebought marinara sauce
p2474
(g5
tp2475
sVsoup
p2476
(g5
tp2477
sVdelallo organic whole wheat farfalle pasta
p2478
(g5
tp2479
sVliquid smoke flavoring
p2480
(g5
tp2481
sVquick rolled oat gluten-free
p2482
(g5
tp2483
sVbottle malty brown ale
p2484
(g5
tp2485
sVfreshly ground black pepper red pepper flake
p2486
(g5
tp2487
sVpickle
p2488
(g5
tp2489
sVsea salt flake
p2490
(g5
tp2491
sV-inch piece peeled ginger
p2492
(g5
tp2493
sVheaping finely rosemary
p2494
(g5
tp2495
sVwhole basil leaf
p2496
(g5
tp2497
sVfrac cashew
p2498
(g5
tp2499
sVmayonaise
p2500
(g5
tp2501
sVsheet nori
p2502
(g5
tp2503
sVganache
p2504
(g5
tp2505
sVred jalapeos fresno holland chile
p2506
(g5
tp2507
sVdry sherry
p2508
(g5
tp2509
sVbottle beer
p2510
(g5
tp2511
sVfat-free natural yoghurt
p2512
(g5
tp2513
sVpinch ground cinnamon
p2514
(g5
tp2515
sVgenerous parmesan cheese
p2516
(g5
tp2517
sVpie shell
p2518
(g5
tp2519
sVpinch fine salt
p2520
(g5
tp2521
sVcreamy bacon-cheese grit
p2522
(g5
tp2523
sVfrac ground cumin
p2524
(g5
tp2525
sVharissa
p2526
(g5
tp2527
sVcreole seasoning
p2528
(g5
tp2529
sVplus room-temperature
p2530
(g5
tp2531
sVfirm goat cheese
p2532
(g5
tp2533
sVpernod pastis
p2534
(g5
tp2535
sVsplash soda
p2536
(g5
tp2537
sVgood crust
p2538
(g5
tp2539
sVfrench baguette
p2540
(g5
tp2541
sVbittersweet chocolate
p2542
(g5
tp2543
sVloosely packed spinach
p2544
(g5
tp2545
sVflank
p2546
(g5
tp2547
sVpackage instant butterscotch pudding mix
p2548
(g5
tp2549
sVpackage mori-nu firm organic tofu
p2550
(g5
tp2551
sVwhole summer squash
p2552
(g5
tp2553
sVfinely semisweet bittersweet chocolate
p2554
(g5
tp2555
sVsmooth dijon mustard
p2556
(g5
tp2557
sVcornflakes cereal
p2558
(g5
tp2559
sVpint
p2560
(g5
tp2561
sVdulce leche caramel toffee
p2562
(g5
tp2563
sVfreshly parmesan
p2564
(g5
tp2565
sVfrac cumin
p2566
(g5
tp2567
sVapplesauce used chunky musselman\u2019s applesauce
p2568
(g5
tp2569
sVchili pepper flake
p2570
(g5
tp2571
sVdozen mint leaf
p2572
(g5
tp2573
sVone pineapple
p2574
(g5
tp2575
sVyeast sachet
p2576
(g5
tp2577
sVtwo pinch sea salt
p2578
(g5
tp2579
sVsunflower vegetable oil
p2580
(g5
tp2581
sVfavourite seasonal vegetable
p2582
(g5
tp2583
sVstinging nettles*
p2584
(g5
tp2585
sVfrac cinnamon
p2586
(g5
tp2587
sVyellow mustard
p2588
(g5
tp2589
sVcouple pinch sea salt
p2590
(g5
tp2591
sVdate
p2592
(g5
tp2593
sVfrac pumpkin puree
p2594
(g5
tp2595
sVstalk lemongrass
p2596
(g5
tp2597
sVblanched asparagus
p2598
(g5
tp2599
sVsmallish yellow squash
p2600
(g5
tp2601
sVnutella chocolate-hazelnut spread
p2602
(g5
tp2603
sVcanned artichoke heart
p2604
(g5
tp2605
sVflaked sweetened coconut
p2606
(g5
tp2607
sVpizza sauce
p2608
(g5
tp2609
sVsalt**
p2610
(g5
tp2611
sVextra-virgin olive
p2612
(g5
tp2613
sVgo-to
p2614
(g5
tp2615
sVshoyu sauce
p2616
(g5
tp2617
sVreal california sour cream creme fraiche
p2618
(g5
tp2619
sVmango
p2620
(g5
tp2621
sVsliced pepperoni
p2622
(g5
tp2623
sVgood coriander
p2624
(g5
tp2625
sVcayenne powder
p2626
(g5
tp2627
sVtahini
p2628
(g5
tp2629
sVmasa harina
p2630
(g5
tp2631
sVwell-stirred tahini
p2632
(g5
tp2633
sVfreshly ground allspice
p2634
(g5
tp2635
sVoat bran
p2636
(g5
tp2637
sVjr. mint
p2638
(g5
tp2639
sVpopcorn kernel
p2640
(g5
tp2641
sVpint blueberry
p2642
(g5
tp2643
sVcitrus zest
p2644
(g5
tp2645
sVarugula about
p2646
(g5
tp2647
sVfrac baking powder
p2648
(g5
tp2649
sVchickpea
p2650
(g5
tp2651
sVbasil mint cilantro sprig
p2652
(g5
tp2653
sVnbsp
p2654
(g5
tp2655
sVdiced pepperoni
p2656
(g5
tp2657
sVspinach rinsed
p2658
(g5
tp2659
sVball mozzarella
p2660
(g5
tp2661
sVspring mix
p2662
(g5
tp2663
sS'cola'
p2664
(S'$ 1.384 per 2 liters '
p2665
g264
tp2666
sVfrac ginger frac powdered ginger
p2667
(g5
tp2668
sVyou 're ready switch bit
p2669
(g5
tp2670
sVavocado peeled
p2671
(g5
tp2672
sVpizza dough recipe
p2673
(g5
tp2674
sVgreen courgette
p2675
(g5
tp2676
sVpatty pan squash
p2677
(g5
tp2678
sV-inch knob ginger
p2679
(g5
tp2680
sVheaping ricotta cheese
p2681
(g5
tp2682
sVone bunch cilantro
p2683
(g5
tp2684
sVtahini use tahini made with toasted sesame seed
p2685
(g5
tp2686
sVcoriander seed blossom
p2687
(g5
tp2688
sVbell pepper various color
p2689
(g5
tp2690
sVred chile pepper flake
p2691
(g5
tp2692
sVserve micro green herb
p2693
(g5
tp2694
sVtonic
p2695
(g5
tp2696
sVred bell pepper
p2697
(g5
tp2698
sVspice spice combination your choice chipotle powder
p2699
(g5
tp2700
sVsweetened
p2701
(g5
tp2702
sVsemi- bittersweet chocolate
p2703
(g5
tp2704
sVitalian spice
p2705
(g5
tp2706
sVjarred marinara sauce pizza sauce
p2707
(g5
tp2708
sVfrac ground cinnamon
p2709
(g5
tp2710
sVdelallo organic orzo
p2711
(g5
tp2712
sVketchup
p2713
(g5
tp2714
sVwhole wheat pasta
p2715
(g5
tp2716
sVcaramel-pecan sauce
p2717
(g5
tp2718
sVanaheim green chile chile
p2719
(g5
tp2720
sVcider vinegar
p2721
(g5
tp2722
sVsemi-sweet bittersweet chocolate high quality
p2723
(g5
tp2724
sVwhole jalapeos
p2725
(g5
tp2726
sVfrac quinoa
p2727
(g5
tp2728
sVroughly mint leaf
p2729
(g5
tp2730
sVpineapple stick
p2731
(g5
tp2732
sVdrop red food coloring
p2733
(g5
tp2734
sVfirm mango
p2735
(g5
tp2736
sVhibiscus flower
p2737
(g5
tp2738
sVfew drop vanilla extract
p2739
(g5
tp2740
sValfalfa sprout
p2741
(g5
tp2742
sVhazelnut extract
p2743
(g5
tp2744
sVpinch nutmeg
p2745
(g5
tp2746
sVoptional mix-ins flax seed
p2747
(g5
tp2748
sVcracked black pepper
p2749
(g5
tp2750
sVcontainer vegetable broth
p2751
(g5
tp2752
sVdutched cocoa powder
p2753
(g5
tp2754
sVparmesan cheese
p2755
(g5
tp2756
sVarla dofino gouda
p2757
(g5
tp2758
sVpure pumpkin puree
p2759
(g5
tp2760
sVshaved coconut
p2761
(g5
tp2762
sVfewdrops iced
p2763
(g5
tp2764
sVfrac avocado
p2765
(g5
tp2766
sVfinely rosemary
p2767
(g5
tp2768
sVpinch freshly ground black pepper
p2769
(g5
tp2770
sVfish shellfish stock
p2771
(g5
tp2772
sVunsweetened flaked coconut
p2773
(g5
tp2774
sVsalt plenty black pepper
p2775
(g5
tp2776
sVgoose
p2777
(g5
tp2778
sVbunch thyme sprig
p2779
(g5
tp2780
sVpackage sliced strawberry
p2781
(g5
tp2782
sVprepared basil pesto
p2783
(g5
tp2784
sVcanola oil grapeseed oil
p2785
(g5
tp2786
sVnutritional yeast vegan parmesan
p2787
(g5
tp2788
sVpackage mini candy-coated chocolate
p2789
(g5
tp2790
sVkosher salt substitute regular table salt use
p2791
(g5
tp2792
sVamaretto
p2793
(g5
tp2794
sVbalsamic glaze
p2795
(g5
tp2796
sVsmallish zucchini
p2797
(g5
tp2798
sVroughly cilantro
p2799
(g5
tp2800
sVpackage nestle toll house semi-sweet chocolate morsel
p2801
(g5
tp2802
sVseaoned salt
p2803
(g5
tp2804
sVopened
p2805
(g5
tp2806
sVhigh quality rapeseed oil light sesame oil
p2807
(g5
tp2808
sVgarnish torn cilantro leaf red pepper flake
p2809
(g5
tp2810
sVancho chile relish
p2811
(g5
tp2812
sVmarcona almond regular almond
p2813
(g5
tp2814
sVtriple sec cointreau
p2815
(g5
tp2816
sVpeter caramel
p2817
(g5
tp2818
sS'rolls'
p2819
(S'$ 0.728 per pound/453.6 grams'
p2820
g264
tp2821
sVspring thyme
p2822
(g5
tp2823
sVold-fashioned rolled oat
p2824
(g5
tp2825
sVpackage dry taco seasoning mix
p2826
(g5
tp2827
sVwhole pie pumpkin
p2828
(g5
tp2829
sVsmall-dice spanish chorizo
p2830
(g5
tp2831
sVcheese curd
p2832
(g5
tp2833
sVlinguine
p2834
(g5
tp2835
sVsalt gram
p2836
(g5
tp2837
sVjumbo colossal shrimp
p2838
(g5
tp2839
sVsampling seasonal vegetable
p2840
(g5
tp2841
sVblue diamond toasted coconut almond
p2842
(g5
tp2843
sVeggs*
p2844
(g5
tp2845
sVcoconut oil
p2846
(g5
tp2847
sVlimeade concentrate
p2848
(g5
tp2849
sVdry ziti pasta
p2850
(g5
tp2851
sVbunch cilantro
p2852
(g5
tp2853
sVquark
p2854
(g5
tp2855
sVquart
p2856
(g5
tp2857
sVchilled heavy cream
p2858
(g5
tp2859
sVheaped cumin seed
p2860
(g5
tp2861
sVextra-firm tofu cut into tiny-inch cube
p2862
(g5
tp2863
sVpiece root ginger
p2864
(g5
tp2865
sVdark unsweetened cocoa powder
p2866
(g5
tp2867
sVsoft goat cheese
p2868
(g5
tp2869
sVextra sea salt
p2870
(g5
tp2871
sVpancake
p2872
(g5
tp2873
sVwhole nutmeg
p2874
(g5
tp2875
sVextra cheese basil
p2876
(g5
tp2877
sVpico gallo salsa
p2878
(g5
tp2879
sVsmoked paprika
p2880
(g5
tp2881
sVwheat bran
p2882
(g5
tp2883
sVfrac flat-leaf parsley leaf
p2884
(g5
tp2885
sVvegetable stock
p2886
(g5
tp2887
sVpepperoni
p2888
(g5
tp2889
sVinstant dashi granule
p2890
(g5
tp2891
sVcalifornia cheese
p2892
(g5
tp2893
sVsoft cheese
p2894
(g5
tp2895
sVbasil leave
p2896
(g5
tp2897
sVbrown lentil
p2898
(g5
tp2899
sVcherry cranberry
p2900
(g5
tp2901
sVsilver
p2902
(g5
tp2903
sVglove garlic
p2904
(g5
tp2905
sVcheese
p2906
(g5
tp2907
sVdiced pimento
p2908
(g5
tp2909
sVland lake
p2910
(g5
tp2911
sVfrac cilantro
p2912
(g5
tp2913
sVthick teriyaki sauce
p2914
(g5
tp2915
sVmayonnaise not use reduced-fat fat-free
p2916
(g5
tp2917
sVoptional oregano cumin
p2918
(g5
tp2919
sVdry chow mein noodle
p2920
(g5
tp2921
sVlightly sweetened whipped cream
p2922
(g5
tp2923
sVseafood mix
p2924
(g5
tp2925
sVcurry powder*
p2926
(g5
tp2927
sVtamari
p2928
(g5
tp2929
sVfinely dill weed
p2930
(g5
tp2931
sVfrac steel cut oat
p2932
(g5
tp2933
sVone package instant chocolate pudding
p2934
(g5
tp2935
sVsweetened sour cherry
p2936
(g5
tp2937
sVground chili powder
p2938
(g5
tp2939
sVhoney maple syrup
p2940
(g5
tp2941
sVold bay seasoning
p2942
(g5
tp2943
sVtiny drop pure vanilla extract
p2944
(g5
tp2945
sVplus buttermilk
p2946
(g5
tp2947
sVbit crumbled feta
p2948
(g5
tp2949
sVcoriander leaf
p2950
(g5
tp2951
sVnatural unsweetened cocoa powder
p2952
(g5
tp2953
sVswedish rye cooky
p2954
(g5
tp2955
sVextra salt pepper
p2956
(g5
tp2957
sVfinely ground espresso
p2958
(g5
tp2959
sVfreshly parmesan-reggiano cheese
p2960
(g5
tp2961
sVjarred jalapeno
p2962
(g5
tp2963
sVfrac green bell pepper
p2964
(g5
tp2965
sVloaf jalapeno cornbread
p2966
(g5
tp2967
sVmore scallion
p2968
(g5
tp2969
sVthinly sliced stemmed tuscan kale leaf
p2970
(g5
tp2971
sVblanched almond
p2972
(g5
tp2973
sVfig apricot jam
p2974
(g5
tp2975
sVimitation crab
p2976
(g5
tp2977
sVfrac natural unsweetened cocoa powder
p2978
(g5
tp2979
sVgood quality dark chocolate
p2980
(g5
tp2981
sVthinly sliced mozarella cheese
p2982
(g5
tp2983
sVfrac oat flour*
p2984
(g5
tp2985
sVseason with salt
p2986
(g5
tp2987
sVblack sesame seed
p2988
(g5
tp2989
sVfrac cracked black pepper
p2990
(g5
tp2991
sVpackage ladyfinger
p2992
(g5
tp2993
sVskinless salmon fillet
p2994
(g5
tp2995
sVblack peppercorn
p2996
(g5
tp2997
sVsolid pack pumpkin
p2998
(g5
tp2999
sVground sea salt
p3000
(g5
tp3001
sViceberg
p3002
(g5
tp3003
sVvanilla extract**
p3004
(g5
tp3005
sVpinch paprika
p3006
(g5
tp3007
sVanother splash two good olive oil citrus dressing
p3008
(g5
tp3009
sVcarton single cream
p3010
(g5
tp3011
sVplus basil leaf
p3012
(g5
tp3013
sVkale leaf
p3014
(g5
tp3015
sVactive dry yeast from -ounce gram envelope yeast
p3016
(g5
tp3017
sVoat flour*
p3018
(g5
tp3019
sVcroissant
p3020
(g5
tp3021
sVnutritional yeast
p3022
(g5
tp3023
sVfinely candied ginger
p3024
(g5
tp3025
sVchinkiang balsamic vinegar
p3026
(g5
tp3027
sVfinely parmesan
p3028
(g5
tp3029
sVgreen lentil
p3030
(g5
tp3031
sVjust-ripe mango
p3032
(g5
tp3033
sVcoconut
p3034
(g5
tp3035
sVtoasted sunflower seeds*
p3036
(g5
tp3037
sVrapeseed oil
p3038
(g5
tp3039
sVplus agave nectar honey
p3040
(g5
tp3041
sVflavorful
p3042
(g5
tp3043
sVdry cider
p3044
(g5
tp3045
sVlasagna noodle
p3046
(g5
tp3047
sVpure virgin coconut oil
p3048
(g5
tp3049
sVminiature pretzel
p3050
(g5
tp3051
sVextra pepper jack
p3052
(g5
tp3053
sVfinely-chopped flat-leaf parsley
p3054
(g5
tp3055
sVgolden raisin optional
p3056
(g5
tp3057
sVcoarse kosher salt
p3058
(g5
tp3059
sV-ounce tube prepared polenta
p3060
(g5
tp3061
sVpillsbury crescent recipe creation refrigerated seamless dough sheet
p3062
(g5
tp3063
sVpint kumquat
p3064
(g5
tp3065
sVlevel organic vegetable stock powder
p3066
(g5
tp3067
sVsprig thyme leaf
p3068
(g5
tp3069
sVfrac butternut squash
p3070
(g5
tp3071
sS'chicken legs'
p3072
(S'$ 1.497 per lb. '
p3073
tp3074
sVred pepper
p3075
(g5
tp3076
sVswiss chard pesto
p3077
(g5
tp3078
sVlight mayonaise
p3079
(g5
tp3080
sVkroger lite soy sauce tamari sauce
p3081
(g5
tp3082
sVcoconut cream
p3083
(g5
tp3084
sVsteel-cut oat
p3085
(g5
tp3086
sVroasted poblano pepper
p3087
(g5
tp3088
sVbox -ounces vanilla wafer
p3089
(g5
tp3090
sVwell-washed thinly sliced leek
p3091
(g5
tp3092
sVheaped whole-grain dijon
p3093
(g5
tp3094
sVmelted coconut oil extra-virgin olive oil
p3095
(g5
tp3096
sVtopping
p3097
(g5
tp3098
sVold paso bold nacho cheese stand stuff taco shell
p3099
(g5
tp3100
sVbok choy
p3101
(g5
tp3102
sVplus unsweetened cocoa powder
p3103
(g5
tp3104
sVtoasted coconut flake
p3105
(g5
tp3106
sVchocolate bar
p3107
(g5
tp3108
sVmixed herb such basil
p3109
(g5
tp3110
sVcheese ravioli
p3111
(g5
tp3112
sVold fashioned oat use certified gluten-free oat you are avoiding gluten
p3113
(g5
tp3114
sVboiling
p3115
(g5
tp3116
sVvery thin prosciutto
p3117
(g5
tp3118
sVpackage spring mix salad mix
p3119
(g5
tp3120
sVprepared whole wheat pie crust
p3121
(g5
tp3122
sVcoarse salt freshly ground black pepper
p3123
(g5
tp3124
sVpinch saffron
p3125
(g5
tp3126
sVhoneydew melon
p3127
(g5
tp3128
sVpepper jack cheese
p3129
(g5
tp3130
sVorganic vegetable stock
p3131
(g5
tp3132
sVfinely bittersweet chocolate
p3133
(g5
tp3134
sVwhite balsamic vinegar
p3135
(g5
tp3136
sVstrawberry avocado salsa
p3137
(g5
tp3138
sVangostura bitter
p3139
(g5
tp3140
sVgoat cheese cream cheese
p3141
(g5
tp3142
sVdutch-process cocoa powder
p3143
(g5
tp3144
sVcocoa nib
p3145
(g5
tp3146
sVpepper sauce e.g tabasco
p3147
(g5
tp3148
sVspecial equipment two loaf pan
p3149
(g5
tp3150
sVold paso fajita dinner kit
p3151
(g5
tp3152
sVtart cherry cranberry
p3153
(g5
tp3154
sVasiago cheese
p3155
(g5
tp3156
sVplus olive oil
p3157
(g5
tp3158
sVradicchio
p3159
(g5
tp3160
sVpack trimmed leek
p3161
(g5
tp3162
sVsalt
p3163
(g5
tp3164
sVpackaged gnocchi
p3165
(g5
tp3166
sVroughly parmesan
p3167
(g5
tp3168
sVseeded soft tortilla
p3169
(g5
tp3170
sVmelted butterolive oil
p3171
(g5
tp3172
sVextra thyme
p3173
(g5
tp3174
sVextra firm tofu
p3175
(g5
tp3176
sVspecial equipment casserole pan
p3177
(g5
tp3178
sVcoarse sea salt
p3179
(g5
tp3180
sVplus panko
p3181
(g5
tp3182
sVunsweetened cocoa powder preferably dutch-process
p3183
(g5
tp3184
sVsesame oil
p3185
(g5
tp3186
sVfine-grain sea salt
p3187
(g5
tp3188
sVgreen chili powder
p3189
(g5
tp3190
sVfinely shallot
p3191
(g5
tp3192
sVstick land lake
p3193
(g5
tp3194
sVqueso fresco
p3195
(g5
tp3196
sVdark chocolate cocoa
p3197
(g5
tp3198
sVcrumbled queso fresco
p3199
(g5
tp3200
sVground
p3201
(g5
tp3202
sVcornflake crumb
p3203
(g5
tp3204
sVassorted veggie cauliflower
p3205
(g5
tp3206
sVfavorite
p3207
(g5
tp3208
sVnectarine
p3209
(g5
tp3210
sVchinese black vinegar
p3211
(g5
tp3212
sVdry rosemary
p3213
(g5
tp3214
sVhash brown
p3215
(g5
tp3216
sVserving suggestion avocado
p3217
(g5
tp3218
sVpinch ground nutmeg
p3219
(g5
tp3220
sVblack
p3221
(g5
tp3222
sVsalted caramel sauce
p3223
(g5
tp3224
sVfrac molasses
p3225
(g5
tp3226
sVsprout
p3227
(g5
tp3228
sVdry ranch dressing seasoning packet
p3229
(g5
tp3230
sVwhole -ounce square semi-sweet chocolate
p3231
(g5
tp3232
sVpumpkin
p3233
(g5
tp3234
sVcannelloni tube
p3235
(g5
tp3236
sVpeeled ginger
p3237
(g5
tp3238
sVpack blueberry
p3239
(g5
tp3240
sValmond sliver
p3241
(g5
tp3242
sVfavorite five minute
p3243
(g5
tp3244
sVhorseradish mayo straight prepared horseradish
p3245
(g5
tp3246
sVfinely peeled ginger
p3247
(g5
tp3248
sVcontainer marshmallow creme
p3249
(g5
tp3250
sVpacked arugula basil
p3251
(g5
tp3252
sVgoat cheese
p3253
(g5
tp3254
sVbutternut kabocha squash
p3255
(g5
tp3256
sVlight golden aleale
p3257
(g5
tp3258
sVpanettone
p3259
(g5
tp3260
sVheaping white yellow miso
p3261
(g5
tp3262
sVroasted red pepper hummus
p3263
(g5
tp3264
sVmelted coconut oil extra-virgin olive oil high quality vegetable oil*
p3265
(g5
tp3266
sV-inch-long individual baguette four -inch-long piece french-bread baguette
p3267
(g5
tp3268
sVblackberry raspberry liqueur
p3269
(g5
tp3270
sVblack mustard seed
p3271
(g5
tp3272
sVquart strawberry
p3273
(g5
tp3274
sVfreshly ground pepper
p3275
(g5
tp3276
sVdeli-sliced tamed jalapeno pepper
p3277
(g5
tp3278
sVcumin
p3279
(g5
tp3280
sVoregano italian seasoning blend
p3281
(g5
tp3282
sVpackage mild taco seasoning mix
p3283
(g5
tp3284
sV-milliliter bottle framboise lambic
p3285
(g5
tp3286
sVbottle champagne
p3287
(g5
tp3288
sVlevel ground
p3289
(g5
tp3290
sVagave nectar
p3291
(g5
tp3292
sV-count package refrigerated biscuit
p3293
(g5
tp3294
sVcanned pumpkin puree
p3295
(g5
tp3296
sVtortilla
p3297
(g5
tp3298
sVadditional raspberry
p3299
(g5
tp3300
sVloose masala chai tied cheesecloth
p3301
(g5
tp3302
sVplus finely parmesan cheese
p3303
(g5
tp3304
sVwhole caramel
p3305
(g5
tp3306
sVwatercress spinach
p3307
(g5
tp3308
sVbittersweet chocolate not exceed cacao
p3309
(g5
tp3310
sVpack cranberry
p3311
(g5
tp3312
sVcoarsely crumbled feta
p3313
(g5
tp3314
sVgarnish side basil cilantro
p3315
(g5
tp3316
sVreduced-sodium tamari* soy sauce
p3317
(g5
tp3318
sVpint-sized canning
p3319
(g5
tp3320
sValmond paste
p3321
(g5
tp3322
sVsliced strawberry
p3323
(g5
tp3324
sVplum preserve
p3325
(g5
tp3326
sVquick oat
p3327
(g5
tp3328
sVpepper jack
p3329
(g5
tp3330
sVitalian seasoning more
p3331
(g5
tp3332
sVgruy cheese thinly sliced
p3333
(g5
tp3334
sVworcestershire sauce
p3335
(g5
tp3336
sVplus mayonnaise
p3337
(g5
tp3338
sVsaffron thread thread
p3339
(g5
tp3340
sVswiss chard stem
p3341
(g5
tp3342
sVwhole coriander seed
p3343
(g5
tp3344
sVyellow green bell pepper
p3345
(g5
tp3346
sVpure maple syrup
p3347
(g5
tp3348
sVfrac balsamic vinegar
p3349
(g5
tp3350
sVbunch tarragon
p3351
(g5
tp3352
sVchipotle chilies adobo sauce
p3353
(g5
tp3354
sVanchovy paste canned anchovy
p3355
(g5
tp3356
sVwhole cauliflower
p3357
(g5
tp3358
sVcultured buttermilk
p3359
(g5
tp3360
sVarugula leaf
p3361
(g5
tp3362
sVlime wedge
p3363
(g5
tp3364
sVwell-strained
p3365
(g5
tp3366
sVpizza dough
p3367
(g5
tp3368
sVheaped sweet smoked paprika
p3369
(g5
tp3370
sVclo
p3371
(g5
tp3372
sVtoasted sunflower seed
p3373
(g5
tp3374
sVpackage package cream cheese
p3375
(g5
tp3376
sVchipotle lime mayo
p3377
(g5
tp3378
sVeasy marinara sauce
p3379
(g5
tp3380
sVpackage refrigerated biscuit dough
p3381
(g5
tp3382
sVyellow red bell pepper
p3383
(g5
tp3384
sVpackage active dry yeast
p3385
(g5
tp3386
sVroasted delicata squash salad
p3387
(g5
tp3388
sS'orange juice'
p3389
(S'$ 1.932 per 16 oz. '
p3390
g264
tp3391
sVextra virgin olive oil
p3392
(g5
tp3393
sVyellow pepper
p3394
(g5
tp3395
sVextra-virgin olive oil
p3396
(g5
tp3397
sVberry
p3398
(g5
tp3399
sVfinely basil leaf
p3400
(g5
tp3401
sVchorizo
p3402
(g5
tp3403
sVextra granola cluster
p3404
(g5
tp3405
sVpackage pho spice cinnamon stick
p3406
(g5
tp3407
sVground almond
p3408
(g5
tp3409
sVsliced mint leaf
p3410
(g5
tp3411
sVyellow chartreuse
p3412
(g5
tp3413
sV-inch-diameter springform pan
p3414
(g5
tp3415
sVpack shortcrust pastry
p3416
(g5
tp3417
sVsalt-packed caper
p3418
(g5
tp3419
sVmustard powder
p3420
(g5
tp3421
sVcanned plain pumpkin
p3422
(g5
tp3423
sVflat-leaf parsley
p3424
(g5
tp3425
sVyour favorite bbq sauce
p3426
(g5
tp3427
sVred quinoa
p3428
(g5
tp3429
sVemmentaler cheese
p3430
(g5
tp3431
sS'turkey'
p3432
(S'$ 1.063 per lb. '
p3433
g264
tp3434
sVblue diamond honey roasted cinnamon almond
p3435
(g5
tp3436
sVpint double cream
p3437
(g5
tp3438
sVsherry vinegar
p3439
(g5
tp3440
sVdill caper sauce see below
p3441
(g5
tp3442
sVpackage instant vanilla pudding mix
p3443
(g5
tp3444
sVextra cilantro
p3445
(g5
tp3446
sVsquash blossom
p3447
(g5
tp3448
sS'shortening'
p3449
(S'$ 0.866 per lb. '
p3450
g264
tp3451
sVangel hair pasta
p3452
(g5
tp3453
sVziti pasta
p3454
(g5
tp3455
sVdouble cream
p3456
(g5
tp3457
sVsnickerdoodle cooky
p3458
(g5
tp3459
sVfrac cocoa powder
p3460
(g5
tp3461
sVworcestershire
p3462
(g5
tp3463
sVchive flower chive
p3464
(g5
tp3465
sVhoisin sauce
p3466
(g5
tp3467
sVvery fish fillet
p3468
(g5
tp3469
sVsolid-pack pumpkin
p3470
(g5
tp3471
sVwhole pineapple
p3472
(g5
tp3473
sVfamily pack mixed pepper
p3474
(g5
tp3475
sVfrac cranberry
p3476
(g5
tp3477
sVheaped ginger
p3478
(g5
tp3479
sVirish cream liqueur
p3480
(g5
tp3481
sVfrac melted coconut oil olive oil
p3482
(g5
tp3483
sVheaping caper
p3484
(g5
tp3485
sVpowder-kissed pretty
p3486
(g5
tp3487
sVcilantro sprig
p3488
(g5
tp3489
sVbun choice english muffin
p3490
(g5
tp3491
sVnigella seed
p3492
(g5
tp3493
sVoptional parsley
p3494
(g5
tp3495
sVfrac loosely packed basil
p3496
(g5
tp3497
sVwhole oreo chocolate sandwich cooky
p3498
(g5
tp3499
sVporridge oat
p3500
(g5
tp3501
sVlow-fat crme frache
p3502
(g5
tp3503
sVcarton double cream
p3504
(g5
tp3505
sVslivered almond pepitas
p3506
(g5
tp3507
sVwhole grain pasta
p3508
(g5
tp3509
sVclam shell
p3510
(g5
tp3511
sVfrac reduced-sodium tamari soy sauce
p3512
(g5
tp3513
sV-ounce container ricotta cheese
p3514
(g5
tp3515
sVharvarti cheese
p3516
(g5
tp3517
sVzucchini noodle grilled shrimp shrimp count
p3518
(g5
tp3519
sVdutch-process cocoa
p3520
(g5
tp3521
sVwhite whole wheat pizza dough
p3522
(g5
tp3523
sVvarious topping toasted sesame seed
p3524
(g5
tp3525
sVpinch ground mace nutmeg
p3526
(g5
tp3527
sVfreshly nutmeg
p3528
(g5
tp3529
sV-ounce salmon fillet
p3530
(g5
tp3531
sVgluten-free tamari
p3532
(g5
tp3533
sVguinness smooth dark ale
p3534
(g5
tp3535
sVjarred refrigerated pesto
p3536
(g5
tp3537
sVcooking sherry
p3538
(g5
tp3539
sVtequila blanco
p3540
(g5
tp3541
sVpineapple ring syrup
p3542
(g5
tp3543
sVupdated gram applesauce
p3544
(g5
tp3545
sVsummer squash zucchini
p3546
(g5
tp3547
sVsemi chocolate bittersweet chocolate
p3548
(g5
tp3549
sVchopstick
p3550
(g5
tp3551
sV-inch you have cast-iron frying pan
p3552
(g5
tp3553
sVglaze
p3554
(g5
tp3555
sVsalt heaping flaky salt
p3556
(g5
tp3557
sVcanola oil vegetable oil
p3558
(g5
tp3559
sVtoasted pepitas used
p3560
(g5
tp3561
sVroasted pistachio
p3562
(g5
tp3563
sVoyster sauce
p3564
(g5
tp3565
sVbunch summer savory
p3566
(g5
tp3567
sVchipotle adobo
p3568
(g5
tp3569
sVpresident brie cheese
p3570
(g5
tp3571
sVtoasted sesame seeds*
p3572
(g5
tp3573
sVtbsps oregano leaf
p3574
(g5
tp3575
sVscant organic cornstarch
p3576
(g5
tp3577
sVmasa regular cornmeal
p3578
(g5
tp3579
sVroasted bell pepper
p3580
(g5
tp3581
sVvery heavy cream
p3582
(g5
tp3583
sVbowl
p3584
(g5
tp3585
sVcoarsely
p3586
(g5
tp3587
sVfrac crumbled feta cheese
p3588
(g5
tp3589
sVwhole squash
p3590
(g5
tp3591
sVground cinnamon
p3592
(g5
tp3593
sVfrac frac salt
p3594
(g5
tp3595
sVolive oil canola oil
p3596
(g5
tp3597
sVwhite crabmeat
p3598
(g5
tp3599
sVall-purpose four
p3600
(g5
tp3601
sVsprinkle chili powder
p3602
(g5
tp3603
sV-ounce hominy
p3604
(g5
tp3605
sVprepared salsa
p3606
(g5
tp3607
sVoil
p3608
(g5
tp3609
sVgenerous olive oil
p3610
(g5
tp3611
sVricotta cheese
p3612
(g5
tp3613
sVfreshly black pepper
p3614
(g5
tp3615
sVfinger-sized piece root ginger
p3616
(g5
tp3617
sVregular size hershey chocolate bar
p3618
(g5
tp3619
sV-ounce
p3620
(g5
tp3621
sVfrac terragon
p3622
(g5
tp3623
sVfrac pineapple
p3624
(g5
tp3625
sVsachet yeast
p3626
(g5
tp3627
sVlot freshly ground black pepper
p3628
(g5
tp3629
sVcilantro coriander
p3630
(g5
tp3631
sVfreshly ground black saltpepper
p3632
(g5
tp3633
sVblack sweet cherry
p3634
(g5
tp3635
sVegg*
p3636
(g5
tp3637
sVadobo
p3638
(g5
tp3639
sVsprig parsley
p3640
(g5
tp3641
sVunsalted pecan
p3642
(g5
tp3643
sVwhole hatch
p3644
(g5
tp3645
sVsmoked mozzarella
p3646
(g5
tp3647
sV-up
p3648
(g5
tp3649
sVlow-fat cottage cheese
p3650
(g5
tp3651
sVpumpkin squash
p3652
(g5
tp3653
sVabout heaping kosher salt
p3654
(g5
tp3655
sVmixed olive
p3656
(g5
tp3657
sVfrac shrimp
p3658
(g5
tp3659
sVpumpkin squash flesh
p3660
(g5
tp3661
sVbunch mint
p3662
(g5
tp3663
sVpinch ground white pepper
p3664
(g5
tp3665
sVflaky sea salt table salt
p3666
(g5
tp3667
sVdrizzle olive oil
p3668
(g5
tp3669
sVcool mint oreo cooky
p3670
(g5
tp3671
sVdr. pepper
p3672
(g5
tp3673
sVoil-packed anchovy
p3674
(g5
tp3675
sVbatch roasted red pepper toasted walnut pesto see below
p3676
(g5
tp3677
sVapricot preserve
p3678
(g5
tp3679
sVbunch curly green kale
p3680
(g5
tp3681
sVbaking soda*
p3682
(g5
tp3683
sVpumpkin puree not pumpkin pie filling
p3684
(g5
tp3685
sVpecorino romano cheese finish
p3686
(g5
tp3687
sV-ounce package mixed vegetable
p3688
(g5
tp3689
sVlimes-for juicing over salad
p3690
(g5
tp3691
sVcubed cantaloupe
p3692
(g5
tp3693
sVcalifornia cream cheese
p3694
(g5
tp3695
sVgood quality miso
p3696
(g5
tp3697
sVnewman own lite balsamic dressing
p3698
(g5
tp3699
sVmarjoram
p3700
(g5
tp3701
sVsalsa naranja sweet chili sauce
p3702
(g5
tp3703
sVfrac cayenne pepper start with
p3704
(g5
tp3705
sVfinely parmesan cheese
p3706
(g5
tp3707
sVbig toasted cashew
p3708
(g5
tp3709
sVgood grind nutmeg
p3710
(g5
tp3711
sVunflavored gelatin
p3712
(g5
tp3713
sVpure vanilla
p3714
(g5
tp3715
sVherbed goat cheese
p3716
(g5
tp3717
sVcumin seed
p3718
(g5
tp3719
sVextra mayonnaise dijon
p3720
(g5
tp3721
sVvarious tube gel icing
p3722
(g5
tp3723
sVrose
p3724
(g5
tp3725
sVpackage mccormick gluten-free chili seasoning mix
p3726
(g5
tp3727
sVcayenne
p3728
(g5
tp3729
sVvietnamese caramel salmon
p3730
(g5
tp3731
sVmixed green
p3732
(g5
tp3733
sVblog
p3734
(g5
tp3735
sVfrac maple syrup honey
p3736
(g5
tp3737
sVcouple big pinch fine-grain sea salt
p3738
(g5
tp3739
sVdelallo marinara pasta sauce
p3740
(g5
tp3741
sVteasoon coconut extract
p3742
(g5
tp3743
sVdiced mango
p3744
(g5
tp3745
sVpaprika sweet
p3746
(g5
tp3747
sVlevel cayenne pepper
p3748
(g5
tp3749
sVspice cardamom
p3750
(g5
tp3751
sVpacked cilantro
p3752
(g5
tp3753
sVcampfire marshmallow giant roaster
p3754
(g5
tp3755
sVyour favorite sauce
p3756
(g5
tp3757
sVcottage cheese
p3758
(g5
tp3759
sVsemisweet bittersweet chocolate not exceed cacao
p3760
(g5
tp3761
sVanchovy
p3762
(g5
tp3763
sVdistilled vinegar
p3764
(g5
tp3765
sVchipotle chili adobo
p3766
(g5
tp3767
sVfreshly cracked black pepper
p3768
(g5
tp3769
sVsplash extra-virgin olive oil
p3770
(g5
tp3771
sVheavy cream half-and-half
p3772
(g5
tp3773
sVabout caramel topping
p3774
(g5
tp3775
sVbottle pinot noir
p3776
(g5
tp3777
sVchile flake
p3778
(g5
tp3779
sVbird eye chilies
p3780
(g5
tp3781
sVyou use store bought
p3782
(g5
tp3783
sVred chili pepper flake
p3784
(g5
tp3785
sVpackage baker semi-sweet baking chocolate
p3786
(g5
tp3787
sVpacked ginger root
p3788
(g5
tp3789
sVquart quart
p3790
(g5
tp3791
sVspread your choice mayo
p3792
(g5
tp3793
sVbasil leaf
p3794
(g5
tp3795
sVhomemade red sauce
p3796
(g5
tp3797
sVbit tarragon
p3798
(g5
tp3799
sVgreen chilies
p3800
(g5
tp3801
sVtoasted sliced almond
p3802
(g5
tp3803
sVwell-shaken buttermilk
p3804
(g5
tp3805
sVtube almond paste
p3806
(g5
tp3807
sVitalian flat-leaf parsley
p3808
(g5
tp3809
sVgranola cereal
p3810
(g5
tp3811
sVcooking oil canola
p3812
(g5
tp3813
sV-inch cube peeled ginger
p3814
(g5
tp3815
sVtopping ingredient
p3816
(g5
tp3817
sVfrac ground chili powder
p3818
(g5
tp3819
sVbunch cilantro leaf
p3820
(g5
tp3821
sVblackberry
p3822
(g5
tp3823
sVquick-cooking oat
p3824
(g5
tp3825
sVpumpkin pie spice
p3826
(g5
tp3827
sVpackage mixed salad green
p3828
(g5
tp3829
sVsprig cilantro
p3830
(g5
tp3831
sVwhole whole green chilies
p3832
(g5
tp3833
sVliter+
p3834
(g5
tp3835
sVfig spread jam
p3836
(g5
tp3837
sVlittleneck clam
p3838
(g5
tp3839
sVbaked pumpkin
p3840
(g5
tp3841
sVoregano
p3842
(g5
tp3843
sVcacao powder
p3844
(g5
tp3845
sVanise seed
p3846
(g5
tp3847
sVbowtie pasta
p3848
(g5
tp3849
sVgolden raisin
p3850
(g5
tp3851
sVcube cube
p3852
(g5
tp3853
sVpasta shell
p3854
(g5
tp3855
sVmexican chorizo
p3856
(g5
tp3857
sVramen noodle
p3858
(g5
tp3859
sVred lentil
p3860
(g5
tp3861
sVflaky white fish
p3862
(g5
tp3863
sVbrussels sprout
p3864
(g5
tp3865
sVcoarsely zucchini
p3866
(g5
tp3867
sVvanilla pudding
p3868
(g5
tp3869
sVbunch curly kale
p3870
(g5
tp3871
sVpancake syrup
p3872
(g5
tp3873
sVitalian cheese blend
p3874
(g5
tp3875
sVneutral vegetable oil
p3876
(g5
tp3877
sVpack soft cheese
p3878
(g5
tp3879
sVlight brown
p3880
(g5
tp3881
sVpack spinach
p3882
(g5
tp3883
sVfrac seeded finely jalapeo
p3884
(g5
tp3885
sVyour favorite barbecue sauce
p3886
(g5
tp3887
sVvery strawberry
p3888
(g5
tp3889
sV-ounce pineapple tidbit pineapple
p3890
(g5
tp3891
sVreduced-fat sour cream
p3892
(g5
tp3893
sVsoft hamburger bun
p3894
(g5
tp3895
sVcotija cheese queso fresco
p3896
(g5
tp3897
sVgreen chicory
p3898
(g5
tp3899
sVblack tapioca pearl
p3900
(g5
tp3901
sVpackage instant yeast
p3902
(g5
tp3903
sVsweet pickle relish
p3904
(g5
tp3905
sVred chili flake
p3906
(g5
tp3907
sVquart heavy cream
p3908
(g5
tp3909
sVcrouton
p3910
(g5
tp3911
sVzest
p3912
(lp3913
Vjuice from lemon
p3914
asVitalian seasoning
p3915
(g5
tp3916
sVsliced pickle
p3917
(g5
tp3918
sVsuper echinacea extract
p3919
(g5
tp3920
sVmozzarella monterey jack cheese
p3921
(g5
tp3922
sVdry rub
p3923
(g5
tp3924
sVtub whipped topping
p3925
(g5
tp3926
sVbalsamic vinegar
p3927
(g5
tp3928
sVheaped oregano
p3929
(g5
tp3930
sVfrac extra-virgin olive oil
p3931
(g5
tp3932
sVserve shallot olive oil drizzle
p3933
(g5
tp3934
sVsheet toasted seaweed
p3935
(g5
tp3936
sValmond breeze almondmilk coconutmilk original
p3937
(g5
tp3938
sVfluid bottle buffalo wing sauce
p3939
(g5
tp3940
sVlow-sodium soy sauce
p3941
(g5
tp3942
sVshaved parmesan
p3943
(g5
tp3944
sVshrimp
p3945
(g5
tp3946
sVdark rum
p3947
(g5
tp3948
sVpistachio
p3949
(g5
tp3950
sVpackage vanilla wafer
p3951
(g5
tp3952
sVpackage spinach leaf
p3953
(g5
tp3954
sVsliced yellow squash
p3955
(g5
tp3956
sVpetit basque monterey
p3957
(g5
tp3958
sVchive
p3959
(g5
tp3960
sVprovolone mozzarella cheese
p3961
(g5
tp3962
sVgolden flaxmeal
p3963
(g5
tp3964
sVfew sprig mint
p3965
(g5
tp3966
sVlevel ground cumin
p3967
(g5
tp3968
sVvery bunch kale
p3969
(g5
tp3970
sVsprig sweet basil thin lime wedge
p3971
(g5
tp3972
sVpackage couscous used world market tri-color couscous
p3973
(g5
tp3974
sVmarshmallow
p3975
(g5
tp3976
sVthinly sliced red bell pepper
p3977
(g5
tp3978
sVfrench green lentil
p3979
(g5
tp3980
sVunsweetened cocoa
p3981
(g5
tp3982
sVwholemeal burger bun
p3983
(g5
tp3984
sVfew grind black pepper
p3985
(g5
tp3986
sVceleriac
p3987
(g5
tp3988
sVpack puff pastry
p3989
(g5
tp3990
sVmccormick pure vanilla extract
p3991
(g5
tp3992
sVpinch marjoram
p3993
(g5
tp3994
sVpacked basil
p3995
(g5
tp3996
sVyellow mustard seed
p3997
(g5
tp3998
sVpuffed quinoa crisp
p3999
(g5
tp4000
sVcurry paste powder
p4001
(g5
tp4002
sVdutch-processed cocoa
p4003
(g5
tp4004
sVgood-quality cider
p4005
(g5
tp4006
sVtahini paste
p4007
(g5
tp4008
sVpkg cream cheese
p4009
(g5
tp4010
sVfreshly-grated parmesan cheese
p4011
(g5
tp4012
sVthin skinless fish fillet
p4013
(g5
tp4014
sVthis thai-spiced pumpkin soup could n't easier make roasted winter squash
p4015
(g5
tp4016
sVwhole bunch cilantro
p4017
(g5
tp4018
sVpoultry seasoning
p4019
(g5
tp4020
sVblock organic extra-firm tofu
p4021
(g5
tp4022
sVpack smoked salmon
p4023
(g5
tp4024
sVbaking powder make sure your baking powder
p4025
(g5
tp4026
sVcrumbled feta
p4027
(g5
tp4028
sVsichuan peppercorn
p4029
(g5
tp4030
sVlot
p4031
(g5
tp4032
sVsliced artichoke heart from
p4033
(g5
tp4034
sVpeppermint oil
p4035
(g5
tp4036
sVinstructionspreheat your oven degree
p4037
(g5
tp4038
sVwonton wrapper
p4039
(g5
tp4040
sVnote-you make these gluten-free using gluten-free oat pretzel
p4041
(g5
tp4042
sVfine-grain sea salt you 're using standard table salt
p4043
(g5
tp4044
sVpanko breadcrumb
p4045
(g5
tp4046
sVcod fillet
p4047
(g5
tp4048
sVfrying pan least diameter bottom
p4049
(g5
tp4050
sVpint olive oil
p4051
(g5
tp4052
sVfrac mixed berry
p4053
(g5
tp4054
sVoregano optional use whatever herb you like
p4055
(g5
tp4056
sVroasted red pepper strip
p4057
(g5
tp4058
sVgrapeseed vegetable oil
p4059
(g5
tp4060
sV-ounce green chilies
p4061
(g5
tp4062
sVpizza stone
p4063
(g5
tp4064
sVmini pre-baked tart pie shell
p4065
(g5
tp4066
sVcanned solid-pack pumpkin
p4067
(g5
tp4068
sVdiced green chilies
p4069
(g5
tp4070
sVcornmeal
p4071
(g5
tp4072
sVkosher salt black pepper
p4073
(g5
tp4074
sVmashed avocado
p4075
(g5
tp4076
sVfreshly parmesan cheese
p4077
(g5
tp4078
sVtoasted pepitas
p4079
(g5
tp4080
sVgrapeseed oil
p4081
(g5
tp4082
sVrecipe basil vinaigrette
p4083
(g5
tp4084
sVcilantro more
p4085
(g5
tp4086
sVguajillo new mexico chile
p4087
(g5
tp4088
sVdeep
p4089
(g5
tp4090
sVchipotle pepper
p4091
(g5
tp4092
sV-ounce condensed cream-of-mushroom soup
p4093
(g5
tp4094
sS'bourbon whiskey'
p4095
(S'$ 6.717 per 25.4 ounces/750 ml'
p4096
g264
tp4097
sVhomemade enchilada sauce
p4098
(g5
tp4099
sVpacket fajita seasoning
p4100
(g5
tp4101
sVdrop pepper sauce such tabasco
p4102
(g5
tp4103
sVcoarsely roasted
p4104
(g5
tp4105
sVclub soda
p4106
(g5
tp4107
sVcream
p4108
(g5
tp4109
sVbar chocolate flavored confectioner coating
p4110
(g5
tp4111
sVtoasted squash seed
p4112
(g5
tp4113
sVsquashed garlic
p4114
(g5
tp4115
sVleaf sprig thyme
p4116
(g5
tp4117
sVmaldon another flaky sea salt
p4118
(g5
tp4119
sVraisin per challah
p4120
(g5
tp4121
sVtoasted pepitas almond
p4122
(g5
tp4123
sVfour boneless
p4124
(g5
tp4125
sVchinese five-spice powder
p4126
(g5
tp4127
sVscant green lentil puy casteluccio
p4128
(g5
tp4129
sVcurry powder
p4130
(g5
tp4131
sVedible flower
p4132
(g5
tp4133
sVgrainy dijon mustard
p4134
(g5
tp4135
sVfinely red bell pepper
p4136
(g5
tp4137
sVspecial equipment flat metal skewer
p4138
(g5
tp4139
sVfinely zest clementine
p4140
(g5
tp4141
sVstrawberry preserve jam
p4142
(g5
tp4143
sVfew sprig oregano marjoram
p4144
(g5
tp4145
sVdry tarragon tarragon
p4146
(g5
tp4147
sVbunch regular kale
p4148
(g5
tp4149
sVreduced-sodium tamari soy sauce
p4150
(g5
tp4151
sVcubed butternut squash -inch piece
p4152
(g5
tp4153
sVpinch ground cayenne pepper
p4154
(g5
tp4155
sVfinely ground almond flour*
p4156
(g5
tp4157
sVsquash
p4158
(g5
tp4159
sVpiece makisu
p4160
(g5
tp4161
sV-oz pkg cream cheese
p4162
(g5
tp4163
sVbrandy
p4164
(g5
tp4165
sVcrumbly ricotta cheese
p4166
(g5
tp4167
sVwatermelon cube
p4168
(g5
tp4169
sVbrown flaxmeal
p4170
(g5
tp4171
sVginger root
p4172
(g5
tp4173
sVkosher salt freshly ground black pepper
p4174
(g5
tp4175
sVponzu sauce
p4176
(g5
tp4177
sVheaped ground coriander
p4178
(g5
tp4179
sVfrac pepitas pecan
p4180
(g5
tp4181
sVlong red chile
p4182
(g5
tp4183
sVpackage taco seasoning mix
p4184
(g5
tp4185
sVmarsala kahla
p4186
(g5
tp4187
sVarrowroot
p4188
(g5
tp4189
sVsalmon about
p4190
(g5
tp4191
sVfine dry breadcrumb
p4192
(g5
tp4193
sVold paso taco seasoning
p4194
(g5
tp4195
sVthin french baguette
p4196
(g5
tp4197
sVcampfire mini fruit-flavored marshmallow
p4198
(g5
tp4199
sVfrac grind cornmeal
p4200
(g5
tp4201
sVsalted sardine
p4202
(g5
tp4203
sVmoneteray jack cheese
p4204
(g5
tp4205
sVrecipe red pepper sauce
p4206
(g5
tp4207
sVdijon mustard
p4208
(g5
tp4209
sVone -ounce cauliflower
p4210
(g5
tp4211
sVfinely kale
p4212
(g5
tp4213
sVgarnish sour cream
p4214
(g5
tp4215
sVvery soft
p4216
(g5
tp4217
sVfreshly cracked pepper
p4218
(g5
tp4219
sVsalmon fillet
p4220
(g5
tp4221
sVcouple pinch fine grain sea salt
p4222
(g5
tp4223
sVitalian flat leaf parsley
p4224
(g5
tp4225
sV-ounce bottle guinness stout
p4226
(g5
tp4227
sVserve cilantro
p4228
(g5
tp4229
sVpeeled ginger about -inch piece
p4230
(g5
tp4231
sVwhole ravioli
p4232
(g5
tp4233
sVunpopped popcorn kernel
p4234
(g5
tp4235
sVparmesan
p4236
(g5
tp4237
sVyellow stone ground cornmeal
p4238
(g5
tp4239
sVmilky way bunny
p4240
(g5
tp4241
sVtopping mint
p4242
(g5
tp4243
sVfine breadcrumb
p4244
(g5
tp4245
sVlight mayonnaise
p4246
(g5
tp4247
sVraisin sultana
p4248
(g5
tp4249
sVscharffen berger natural unsweetened cocoa powder
p4250
(g5
tp4251
sVsparkling
p4252
(g5
tp4253
sVcayenne pepper
p4254
(g5
tp4255
sVtiny salt
p4256
(g5
tp4257
sVheavily peated scotch whisky
p4258
(g5
tp4259
sVsoy sauce more
p4260
(g5
tp4261
sVplenty ground black pepper
p4262
(g5
tp4263
sVdressing
p4264
(g5
tp4265
sVheavy-duty
p4266
(g5
tp4267
sVoil melted coconut oil
p4268
(g5
tp4269
sVbell pepper another color
p4270
(g5
tp4271
sVsalted popcorn
p4272
(g5
tp4273
sVserrano chile pepper
p4274
(g5
tp4275
sVshallow saucepan with cover
p4276
(g5
tp4277
sVdelallo jarred roasted red pepper
p4278
(g5
tp4279
sVsmoked chipotle chilli
p4280
(g5
tp4281
sVliter
p4282
(g5
tp4283
sVvanilla extract
p4284
(g5
tp4285
sVamchoor powder
p4286
(g5
tp4287
sVpackage refrigerated cheese tortellini
p4288
(g5
tp4289
sVliter ginger ale soda
p4290
(g5
tp4291
sVstrawberry glaze
p4292
(g5
tp4293
sVjalape
p4294
(g5
tp4295
sVheath toffee bit
p4296
(g5
tp4297
sVrosemary sprig
p4298
(g5
tp4299
sVpackage gummy worm
p4300
(g5
tp4301
sVtruvia baking blend
p4302
(g5
tp4303
sVfull fat sour cream
p4304
(g5
tp4305
sVvegetable oil spray
p4306
(g5
tp4307
sVridged pasta
p4308
(g5
tp4309
sVmedium-large zucchini
p4310
(g5
tp4311
sVworth buttercream frosting
p4312
(g5
tp4313
sVgluten-free oat
p4314
(g5
tp4315
sVfrac olive oil
p4316
(g5
tp4317
sVpinch black pepper
p4318
(g5
tp4319
sVwhole -ounce square unsweetened chocolate
p4320
(g5
tp4321
sVchilled coconut oil
p4322
(g5
tp4323
sVkraft caramel bit
p4324
(g5
tp4325
sVone -ounce container ready-made frosting
p4326
(g5
tp4327
sVprosciutto
p4328
(g5
tp4329
sVfinely black olive
p4330
(g5
tp4331
sVtricolor quinoa
p4332
(g5
tp4333
sVtriple ginger cooky
p4334
(g5
tp4335
sVvanilla extract essence
p4336
(g5
tp4337
sVplenty black pepper
p4338
(g5
tp4339
sVcoarse salt freshly ground pepper
p4340
(g5
tp4341
sS'cookies'
p4342
(S'$ 3.147 per lb. '
p4343
tp4344
sVsliced pancetta
p4345
(g5
tp4346
sVpacket instant ramen
p4347
(g5
tp4348
sVpackage ranch dressing seasoning mix
p4349
(g5
tp4350
sVstalk green garlic
p4351
(g5
tp4352
sVbox athens mini fillo shell
p4353
(g5
tp4354
sVabout snipped chive sliced scallion
p4355
(g5
tp4356
sVbaking mix
p4357
(g5
tp4358
sVheaped mascarpone cheese crme frache
p4359
(g5
tp4360
sVscant salt
p4361
(g5
tp4362
sVgreen yellow courgette
p4363
(g5
tp4364
sVknob pure butterghee
p4365
(g5
tp4366
sVgolden-crusted brussels sprout
p4367
(g5
tp4368
sVpack lasagne sheet
p4369
(g5
tp4370
sVextra-virgin coconut oil
p4371
(g5
tp4372
sVgingersnap cooky
p4373
(g5
tp4374
sVfreshly cilantro
p4375
(g5
tp4376
sVcilantro oregano
p4377
(g5
tp4378
sVtoothpick
p4379
(g5
tp4380
sVcrust
p4381
(g5
tp4382
sVbutton white chocolate
p4383
(g5
tp4384
sVseveral twist freshly ground black pepper
p4385
(g5
tp4386
sVyellow cornmeal
p4387
(g5
tp4388
sVpinch cayenne
p4389
(g5
tp4390
sVfew drop yellow food colouring
p4391
(g5
tp4392
sVdiced tomatoes*
p4393
(g5
tp4394
sVblack teabags
p4395
(g5
tp4396
sVpacked mint leaf
p4397
(g5
tp4398
sVone -ounce dr. pepper
p4399
(g5
tp4400
sVflat tonic
p4401
(g5
tp4402
sVfinely italian parsley
p4403
(g5
tp4404
sVsoft tofu
p4405
(g5
tp4406
sVfrac cilantro leaf
p4407
(g5
tp4408
sVasparagus stalk
p4409
(g5
tp4410
sVroasted garlic
p4411
(g5
tp4412
sVbrie cheese
p4413
(g5
tp4414
sVoptional spice cayenne pepper
p4415
(g5
tp4416
sVfluid white rum
p4417
(g5
tp4418
sVadobo sauce from canned chipotle
p4419
(g5
tp4420
sVcreamed feta paste
p4421
(g5
tp4422
sVloosly packed cilantro
p4423
(g5
tp4424
sVoptional ingredient goat cheese
p4425
(g5
tp4426
sVwhole wonton wrapper
p4427
(g5
tp4428
sVworcestershire sauce soy sauce
p4429
(g5
tp4430
sVpackage instant chocolate pudding mix
p4431
(g5
tp4432
sVblock cream cheese
p4433
(g5
tp4434
sVwax paper
p4435
(g5
tp4436
sVfrac coconut extract
p4437
(g5
tp4438
sVrinsed salt-packed caper
p4439
(g5
tp4440
sVfrac lavender
p4441
(g5
tp4442
sS'cucumbers'
p4443
(S'$ 0.758 per lb. '
p4444
g264
tp4445
sVbittersweet chocolate ndash cacao
p4446
(g5
tp4447
sVmayonnnaise
p4448
(g5
tp4449
sVgood feta
p4450
(g5
tp4451
sVmaraschino cherry
p4452
(g5
tp4453
sVfinely sliced shiso leaf
p4454
(g5
tp4455
sVbox peppermint crunch junior mint
p4456
(g5
tp4457
sVorecchiette
p4458
(g5
tp4459
sVfluid boiling
p4460
(g5
tp4461
sVgreen black olive
p4462
(g5
tp4463
sVguacamole
p4464
(g5
tp4465
sVdutch cocoa powder
p4466
(g5
tp4467
sVheaped ground cumin
p4468
(g5
tp4469
sVpiece piece
p4470
(g5
tp4471
sVdistilled white vinegar
p4472
(g5
tp4473
sVfrac pepitas sunflower seed
p4474
(g5
tp4475
sVbaking powder make sure your baking powder more than month old you may not get good rise
p4476
(g5
tp4477
sVpackage taco seasoning
p4478
(g5
tp4479
sVlot basil
p4480
(g5
tp4481
sVwhole wheat panko breadcrumb
p4482
(g5
tp4483
sVfrangelico another hazelnut liqueur vanilla extract**
p4484
(g5
tp4485
sVfrac arrowroot starch cornstarch optional
p4486
(g5
tp4487
sVstore-bought easy drop biscuit see recipe
p4488
(g5
tp4489
sVchipotle chile adobo
p4490
(g5
tp4491
sVpackage individually wrapped caramel
p4492
(g5
tp4493
sVguinness draught
p4494
(g5
tp4495
sVfrac finely cauliflower
p4496
(g5
tp4497
sVtoasted pecan
p4498
(g5
tp4499
sVquart strawberry cleaned
p4500
(g5
tp4501
sVwhole jalapeo
p4502
(g5
tp4503
sVred thai curry paste
p4504
(g5
tp4505
sS'pears'
p4506
(S'$ 0.576 per lb. '
p4507
g264
tp4508
sVbunch tuscan kale
p4509
(g5
tp4510
sVsalsa spicy you like
p4511
(g5
tp4512
sVpinch fine grain sea salt
p4513
(g5
tp4514
sVblue diamond dark chocolate almond
p4515
(g5
tp4516
sVranch dressing mix
p4517
(g5
tp4518
sVoptional topping salsa
p4519
(g5
tp4520
sVred chile sauce salsa verde*
p4521
(g5
tp4522
sVblackening spice
p4523
(g5
tp4524
sVgreen serrano pepper
p4525
(g5
tp4526
sVadobo sauce from chipotle pepper
p4527
(g5
tp4528
sVcheese spinach tortellini
p4529
(g5
tp4530
sVground flax seed
p4531
(g5
tp4532
sVfrac plain
p4533
(g5
tp4534
sVstick part-skim mozzarella string cheese
p4535
(g5
tp4536
sVpackage mixed green
p4537
(g5
tp4538
sV-ounces spinach
p4539
(g5
tp4540
sVfew snipped chive
p4541
(g5
tp4542
sVstick
p4543
(g5
tp4544
sS'lemons'
p4545
(S'$ 1.836 per lb. '
p4546
tp4547
sVparmesan shaving
p4548
(g5
tp4549
sVmild green chile
p4550
(g5
tp4551
sVthai chili sauce sauce
p4552
(g5
tp4553
sVrich ale guinness
p4554
(g5
tp4555
sVburrata cheese
p4556
(g5
tp4557
sVtaco seasoning mix
p4558
(g5
tp4559
sVthai green curry paste*
p4560
(g5
tp4561
sVpasta orecchiette
p4562
(g5
tp4563
sVoregano leaf
p4564
(g5
tp4565
sVcouple drop red food coloring
p4566
(g5
tp4567
sVgreen chilli
p4568
(g5
tp4569
sVhabanero scotch bonnet pepper
p4570
(g5
tp4571
sVxylitol
p4572
(g5
tp4573
sVfluid triple sec
p4574
(g5
tp4575
sVsoft shell steamer clam
p4576
(g5
tp4577
sVquart popped popcorn
p4578
(g5
tp4579
sV-pound package delallo whole wheat pasta
p4580
(g5
tp4581
sVpasta sauce
p4582
(g5
tp4583
sVkosher salt
p4584
(g5
tp4585
sVmonterey jack
p4586
(g5
tp4587
sVground nutmeg
p4588
(g5
tp4589
sVground mustard
p4590
(g5
tp4591
sVslightly heaping frac salt
p4592
(g5
tp4593
sVlow-sodium broth
p4594
(g5
tp4595
sVwhite breadcrumb
p4596
(g5
tp4597
sVsprig mint
p4598
(g5
tp4599
sVlow sodium soy sauce
p4600
(g5
tp4601
sVfreshly parmesan cheese* about frac
p4602
(g5
tp4603
sVhabanero chile
p4604
(g5
tp4605
sVfleur sel maldon sea salt flake
p4606
(g5
tp4607
sVinch-long piece ginger
p4608
(g5
tp4609
sVgallon
p4610
(g5
tp4611
sValeppo pepper flake using regular red pepper flake
p4612
(g5
tp4613
sVpinch pinch
p4614
(g5
tp4615
sVcoconut extract
p4616
(g5
tp4617
sVcoarse flaky sea salt
p4618
(g5
tp4619
sVbunch italian flat leaf parsley
p4620
(g5
tp4621
sVpint blackberry
p4622
(g5
tp4623
sVwhole pecan
p4624
(g5
tp4625
sVground black white pepper
p4626
(g5
tp4627
sVserano chili pepper stem
p4628
(g5
tp4629
sVdrained
p4630
(g5
tp4631
sVjalapeo chili pepper stem
p4632
(g5
tp4633
sVcurrant fig
p4634
(g5
tp4635
sVrye
p4636
(g5
tp4637
sVpaprika optional
p4638
(g5
tp4639
sVpack poached salmon fillet
p4640
(g5
tp4641
sVplus tequila
p4642
(g5
tp4643
sVfine grain sea salt
p4644
(g5
tp4645
sVwhite chocolate peppermint
p4646
(g5
tp4647
sVpacket dry active yeast
p4648
(g5
tp4649
sVwhole grain tortilla
p4650
(g5
tp4651
sVcoarsely pecan
p4652
(g5
tp4653
sVsweet basil leaf
p4654
(g5
tp4655
sVuse roasted pepper
p4656
(g5
tp4657
sVcenter cut salmon fillet
p4658
(g5
tp4659
sV-ounce coconut milk*
p4660
(g5
tp4661
sVsprinkle
p4662
(g5
tp4663
sVstore-bought gnocchi
p4664
(g5
tp4665
sVdill havarti cheese
p4666
(g5
tp4667
sVvery zucchini
p4668
(g5
tp4669
sVminiature shell shaped pasta
p4670
(g5
tp4671
sVrinsed quinoa
p4672
(g5
tp4673
sV-inch cubed butternut squash
p4674
(g5
tp4675
sVsoda
p4676
(g5
tp4677
sVmore oil grease your pan skillet
p4678
(g5
tp4679
sVlong
p4680
(g5
tp4681
sVvanilla pod
p4682
(g5
tp4683
sVwhole scallion
p4684
(g5
tp4685
sVwhole wheat sourdough english muffin
p4686
(g5
tp4687
sVflaky sea salt
p4688
(g5
tp4689
sVartificial pink food colouring
p4690
(g5
tp4691
sVpiece pancetta
p4692
(g5
tp4693
sVdrop two green food coloring
p4694
(g5
tp4695
sVjarred defrosted artichoke
p4696
(g5
tp4697
sVdrizzle honey
p4698
(g5
tp4699
sVpackage dry penne pasta
p4700
(g5
tp4701
sVoptional garnish pickled jalapeos
p4702
(g5
tp4703
sVscant olive oil
p4704
(g5
tp4705
sVbunch flat-leaf kale
p4706
(g5
tp4707
sVbell pepper green
p4708
(g5
tp4709
sVwhole cumin seed
p4710
(g5
tp4711
sVscant flat-leaf parsley
p4712
(g5
tp4713
sVquinoa all red mix red
p4714
(g5
tp4715
sV-count tube refrigerated biscuit
p4716
(g5
tp4717
sVprepared yellow mustard
p4718
(g5
tp4719
sVscant maple syrup
p4720
(g5
tp4721
sVpure almond extract
p4722
(g5
tp4723
sVparsley leaf
p4724
(g5
tp4725
sVsliced avocado
p4726
(g5
tp4727
sVrounded nutella own-brand chocolate hazelnut spread
p4728
(g5
tp4729
sVbunch swiss chard
p4730
(g5
tp4731
sVjalapeo
p4732
(g5
tp4733
sVegg
p4734
(lp4735
Vmilk
p4736
asVturmeric
p4737
(g5
tp4738
sVbig pinch salt
p4739
(g5
tp4740
sVguajillos
p4741
(g5
tp4742
sVthin linguine
p4743
(g5
tp4744
sVred pepper flake
p4745
(g5
tp4746
sVold-fashioned oat
p4747
(g5
tp4748
sVdiced jalapeno
p4749
(g5
tp4750
sVlimoncello
p4751
(g5
tp4752
sVplus honey
p4753
(g5
tp4754
sVplump date
p4755
(g5
tp4756
sVpecorino parmesan cheese
p4757
(g5
tp4758
sVdough
p4759
(g5
tp4760
sVmed garlic
p4761
(g5
tp4762
sVfrac chili garlic sauce
p4763
(g5
tp4764
sVpack pizza base mix
p4765
(g5
tp4766
sVhigh quality vegetable oil extra-virgin olive oil
p4767
(g5
tp4768
sVlasagne sheet
p4769
(g5
tp4770
sVbrie
p4771
(g5
tp4772
sVfinely seeded jalapeo pepper
p4773
(g5
tp4774
sVgenerous pinch rosemary
p4775
(g5
tp4776
sVcaramel square
p4777
(g5
tp4778
sVsweetened flaked coconut
p4779
(g5
tp4780
sVoptional salad green balsamic vinaigrette
p4781
(g5
tp4782
sVfrac hemp seed toasted walnut
p4783
(g5
tp4784
sVlarge-flake coconut
p4785
(g5
tp4786
sVcontainer part-skim ricotta cheese
p4787
(g5
tp4788
sVcoldegg
p4789
(g5
tp4790
sVolive another oil your choice
p4791
(g5
tp4792
sVsunflower oil vegetable
p4793
(g5
tp4794
sVnapoletana pizza dough recipe
p4795
(g5
tp4796
sVboneless
p4797
(g5
tp4798
sVpinch ground oregano
p4799
(g5
tp4800
sVpesto
p4801
(g5
tp4802
sVcool
p4803
(g5
tp4804
sVsauce
p4805
(g5
tp4806
sVharissa paste
p4807
(g5
tp4808
sVasparagus cooking
p4809
(g5
tp4810
sVjarred artichoke heart
p4811
(g5
tp4812
sVgood
p4813
(g5
tp4814
sVmustard mayo
p4815
(g5
tp4816
sVmug couscous
p4817
(g5
tp4818
sVtrimmed rhubarb
p4819
(g5
tp4820
sVsmall-medium delicata squash
p4821
(g5
tp4822
sVsterilized quart canning
p4823
(g5
tp4824
sVanaheim chile jalapeos
p4825
(g5
tp4826
sVfew generous grind black pepper
p4827
(g5
tp4828
sVjet-puffed vanilla mallow bit
p4829
(g5
tp4830
sVtoasted shelled pumpkin seed optional
p4831
(g5
tp4832
sVoptional ingredient nutmeg
p4833
(g5
tp4834
sVrapid rise yeast
p4835
(g5
tp4836
sVcream tartar
p4837
(g5
tp4838
sVfinely diced green pepper
p4839
(g5
tp4840
sVbig garlic
p4841
(g5
tp4842
sVabout one vegetable broth
p4843
(g5
tp4844
sV-ounce boneless
p4845
(g5
tp4846
sVcointreau
p4847
(g5
tp4848
sVquality extra-virgin olive oil
p4849
(g5
tp4850
sVbunch collard green
p4851
(g5
tp4852
sVcotija queso seco cheese
p4853
(g5
tp4854
sVrolled oat
p4855
(g5
tp4856
sVall ground allspice
p4857
(g5
tp4858
sVwhole pie crust
p4859
(g5
tp4860
sVpinch salt
p4861
(g5
tp4862
sVrosemary rosemary
p4863
(g5
tp4864
sVplain chocolate solid
p4865
(g5
tp4866
sVblanco tequila
p4867
(g5
tp4868
sVfluid rum
p4869
(g5
tp4870
sVcoarse sea salt freshly ground black pepper
p4871
(g5
tp4872
sVground thyme
p4873
(g5
tp4874
sVfrac bunch asparagus
p4875
(g5
tp4876
sVsweet paprika
p4877
(g5
tp4878
sVyeast-raised cornbread
p4879
(g5
tp4880
sVfennel seed
p4881
(g5
tp4882
sVsheet gelatine
p4883
(g5
tp4884
sVcanned pie filling your choice
p4885
(g5
tp4886
sVfinely roasted red pepper
p4887
(g5
tp4888
sVwhole whole wheat tortilla
p4889
(g5
tp4890
sVscant quinoa
p4891
(g5
tp4892
sVeaster pretzel
p4893
(g5
tp4894
sVbottled sauce your choice bbq
p4895
(g5
tp4896
sVmexican style cheese blend
p4897
(g5
tp4898
sVlemongrass
p4899
(g5
tp4900
sVpickled ginger
p4901
(g5
tp4902
sVpureed strawberry berry
p4903
(g5
tp4904
sVfenugreek leaf
p4905
(g5
tp4906
sVwhole caraway seed
p4907
(g5
tp4908
sVfrac creamy
p4909
(g5
tp4910
sVinstant espresso powder
p4911
(g5
tp4912
sVtop with fried caper
p4913
(g5
tp4914
sVoption marinade sauce
p4915
(g5
tp4916
sVlot cilantro
p4917
(g5
tp4918
sVgranola
p4919
(g5
tp4920
sVcrumbled goat cheese
p4921
(g5
tp4922
sVtub garlic cream cheese
p4923
(g5
tp4924
sVground mace nutmeg
p4925
(g5
tp4926
sVcranberry sauce
p4927
(g5
tp4928
sVcilantro parsley leaf
p4929
(g5
tp4930
sVcanola grapeseed oil
p4931
(g5
tp4932
sVblack beluga lentil french green lentil
p4933
(g5
tp4934
sVbunch asparagus
p4935
(g5
tp4936
sVtoffee-and-chocolate baking piece
p4937
(g5
tp4938
sV-inch-thick
p4939
(g5
tp4940
sVoptional garnish cinnamon stick star anise
p4941
(g5
tp4942
sVsunflower seed
p4943
(g5
tp4944
sVthumb-sized piece ginger
p4945
(g5
tp4946
sVheaped light
p4947
(g5
tp4948
sVoptional thinly sliced jalapeno
p4949
(g5
tp4950
sVcornstarch
p4951
(g5
tp4952
sVbun
p4953
(g5
tp4954
sVpoppy seed
p4955
(g5
tp4956
sVflat-leaf parsley curly parsley
p4957
(g5
tp4958
sVbox vanilla wafer
p4959
(g5
tp4960
sVscotch bonnet chilli
p4961
(g5
tp4962
sVhalf-pint
p4963
(g5
tp4964
sVwhole mini-pretzel twist
p4965
(g5
tp4966
sVpaneer cheese
p4967
(g5
tp4968
sVitalian parsley
p4969
(g5
tp4970
sVcut flower
p4971
(g5
tp4972
sS'round roast'
p4973
(S'$ 5.247 per lb. '
p4974
tp4975
sVmelted chocolate
p4976
(g5
tp4977
sS'lamb and mutton'
p4978
(S'$ 3.305 per lb. '
p4979
g264
tp4980
sVwhole hershey kiss
p4981
(g5
tp4982
sVlump crabmeat
p4983
(g5
tp4984
sVartificial sweetener
p4985
(g5
tp4986
sVgood quality marinara sauce
p4987
(g5
tp4988
sVcellophane noodle
p4989
(g5
tp4990
sVbow tie noodle
p4991
(g5
tp4992
sVcayenne pepper optional
p4993
(g5
tp4994
sVfrac slivered almond
p4995
(g5
tp4996
sVkasseri mozzarella
p4997
(g5
tp4998
sVchili oil
p4999
(g5
tp5000
sVcrispy gingersnap cooky
p5001
(g5
tp5002
sVchampagne vinegar
p5003
(g5
tp5004
sVjalapeo chile
p5005
(g5
tp5006
sVtoasted sesame oil
p5007
(g5
tp5008
sVwhite peppercorn
p5009
(g5
tp5010
sVheaped thick-cut marmalade
p5011
(g5
tp5012
sVbottle ale
p5013
(g5
tp5014
sVchipotle pepper adobo sauce
p5015
(g5
tp5016
sV-ounce packet active dry yeast
p5017
(g5
tp5018
sVbulb garlic
p5019
(g5
tp5020
sVcanned diced jalapeno pepper
p5021
(g5
tp5022
sVdiced pancetta
p5023
(g5
tp5024
sVfluid jigger rum
p5025
(g5
tp5026
sV-pound boneless
p5027
(g5
tp5028
sVfew pinch sea salt
p5029
(g5
tp5030
sVextra cream
p5031
(g5
tp5032
sVsour cream chive parsley
p5033
(g5
tp5034
sVfrac apricot liqueur
p5035
(g5
tp5036
sVbunch -ounce marinara sauce
p5037
(g5
tp5038
sValmond breeze almondmilk hint honey
p5039
(g5
tp5040
sVgumbo file powder
p5041
(g5
tp5042
sVliquid heavy cream
p5043
(g5
tp5044
sVgood-quality burger bun
p5045
(g5
tp5046
sVscallion
p5047
(g5
tp5048
sVpacket dry jus mix
p5049
(g5
tp5050
sVolive grapeseed oil
p5051
(g5
tp5052
sVfettuccini pasta
p5053
(g5
tp5054
sVroot ginger
p5055
(g5
tp5056
sVsyrup
p5057
(g5
tp5058
sVgreat quality extra-virgin olive oil
p5059
(g5
tp5060
sVhalloumi cheese
p5061
(g5
tp5062
sVpeacans
p5063
(g5
tp5064
sVbuttermilk natural yoghurt
p5065
(g5
tp5066
sVfrac thyme
p5067
(g5
tp5068
sVwhole vanilla wafer
p5069
(g5
tp5070
sVmedium-sized zucchini
p5071
(g5
tp5072
sVbasil flake
p5073
(g5
tp5074
sVwide -quart pan
p5075
(g5
tp5076
sVwhole wheat hamburger bun
p5077
(g5
tp5078
sVgolden white balsamic vinegar
p5079
(g5
tp5080
sVgood thumb-size piece root ginger
p5081
(g5
tp5082
sVbasil thai basil leaf
p5083
(g5
tp5084
sVadditional almond sea salt
p5085
(g5
tp5086
sS'spaghetti and macaroni'
p5087
(S'$ 1.259 per lb. '
p5088
tp5089
sVbeer ale
p5090
(g5
tp5091
sV-inch-diced pancetta
p5092
(g5
tp5093
sVthumb-size piece root ginger
p5094
(g5
tp5095
sVbunch flat-leaf parsley
p5096
(g5
tp5097
sVvegan cream cheese substitute such tofutti
p5098
(g5
tp5099
sVbar dark chocolate
p5100
(g5
tp5101
sVancho new mexican chili powder
p5102
(g5
tp5103
sVfinely lime zest
p5104
(g5
tp5105
sVwhole green peppercorn
p5106
(g5
tp5107
sVmint cilantro
p5108
(g5
tp5109
sVplus runny honey
p5110
(g5
tp5111
sVbucatini long pasta
p5112
(g5
tp5113
sVfrac soy sauce** used reduced-sodium tamari
p5114
(g5
tp5115
sVyellow bell pepper
p5116
(g5
tp5117
sVcrumbled cotija cheese feta
p5118
(g5
tp5119
sVolive oil spray
p5120
(g5
tp5121
sVcoleslaw
p5122
(g5
tp5123
sV-ounce nutella
p5124
(g5
tp5125
sVpackage phyllo dough
p5126
(g5
tp5127
sVpinch cinnamon
p5128
(g5
tp5129
sVpepperoncini pepper
p5130
(g5
tp5131
sVfine grain salt
p5132
(g5
tp5133
sVground chipotle pepper
p5134
(g5
tp5135
sVfew sprig thyme
p5136
(g5
tp5137
sVsquare bittersweet chocolate
p5138
(g5
tp5139
sVsmoked chili pepper poblano pepper
p5140
(g5
tp5141
sVbrussels sprout about big worth
p5142
(g5
tp5143
sVfillet salmon
p5144
(g5
tp5145
sVsoy sauce shoyu
p5146
(g5
tp5147
sVhigh-quality white chocolate
p5148
(g5
tp5149
sVheaped pearl barley
p5150
(g5
tp5151
sVfile powder
p5152
(g5
tp5153
sVbig leafy green chard
p5154
(g5
tp5155
sVkroger vegetable broth
p5156
(g5
tp5157
sVstore bought pizza crust refrigerated crust
p5158
(g5
tp5159
sVminiature marshmallow
p5160
(g5
tp5161
sVred chilies
p5162
(g5
tp5163
sVsweet pickle
p5164
(g5
tp5165
sS'pork chops'
p5166
(S'$ 3.874 per lb. '
p5167
tp5168
sS'jelly '
p5169
(S'$ 0.943 per pound/453.6 grams'
p5170
g264
tp5171
sVwhite cider vinegar
p5172
(g5
tp5173
sVsherry
p5174
(g5
tp5175
sVpinch coarse salt
p5176
(g5
tp5177
sVzucchini
p5178
(g5
tp5179
sVpink curing salt*
p5180
(g5
tp5181
sVcoconut granola
p5182
(g5
tp5183
sVunsweetened chocolate
p5184
(g5
tp5185
sVequipment bamboo basket steamer
p5186
(g5
tp5187
sVwhite vinegar optional
p5188
(g5
tp5189
sS'eggs'
p5190
(S'$ 2.365 per doz.'
p5191
tp5192
sVfrac lightly packed cilantro
p5193
(g5
tp5194
sVsalmon
p5195
(g5
tp5196
sVfish stock
p5197
(g5
tp5198
sVpinch fennel seed
p5199
(g5
tp5200
sVenvelope unflavored gelatin
p5201
(g5
tp5202
sVscrubbed littleneck clam
p5203
(g5
tp5204
sVfinely almond
p5205
(g5
tp5206
sVkitchen bouquet
p5207
(g5
tp5208
sVswiss mixture swiss parmesan cheese
p5209
(g5
tp5210
sVmini rolos
p5211
(g5
tp5212
sVchard
p5213
(g5
tp5214
sVsauerkraut
p5215
(g5
tp5216
sVpepper sauce such tabasco
p5217
(g5
tp5218
sVfinely crystallized ginger
p5219
(g5
tp5220
sVagave syrup
p5221
(g5
tp5222
sVdiced jalapeno pepper
p5223
(g5
tp5224
sVwhole lasagna noodle
p5225
(g5
tp5226
sVfinely chive
p5227
(g5
tp5228
sVbbq sauce
p5229
(g5
tp5230
sVsmoked salmon gravadlax
p5231
(g5
tp5232
sVspinach leaf
p5233
(g5
tp5234
sVfreshly ground nutmeg
p5235
(g5
tp5236
sVfinely basil
p5237
(g5
tp5238
sVcardamom pod
p5239
(g5
tp5240
sVclean
p5241
(g5
tp5242
sVcrme frache
p5243
(g5
tp5244
sVcanned cherry
p5245
(g5
tp5246
sVdry tortellini
p5247
(g5
tp5248
sVroasted ground cumin
p5249
(g5
tp5250
sVscant fine grain sea salt
p5251
(g5
tp5252
sVroasted red pepper
p5253
(g5
tp5254
sVbell pepper
p5255
(g5
tp5256
sVpeppermint extract
p5257
(g5
tp5258
sVfrac cumin seed scale back little you 're not crazy about cumin
p5259
(g5
tp5260
sVhalf-fat soured cream
p5261
(g5
tp5262
sVfinely dill pickle
p5263
(g5
tp5264
sVvanilla extract optional
p5265
(g5
tp5266
sVsaffron thread
p5267
(g5
tp5268
sVcount shrimp
p5269
(g5
tp5270
sVspanish green olive
p5271
(g5
tp5272
sVchipotle chile adobo sauce
p5273
(g5
tp5274
sVgood-quality fusilli penne
p5275
(g5
tp5276
sVsplash heavy cream
p5277
(g5
tp5278
sVoptional pico gallo
p5279
(g5
tp5280
sVleftover cranberry sauce
p5281
(g5
tp5282
sVpackage dry ranch-style dressing mix
p5283
(g5
tp5284
sVfrac chipotle pepper adobo* start with frac add more
p5285
(g5
tp5286
sVgarlic chili sauce
p5287
(g5
tp5288
sVsprig oregano
p5289
(g5
tp5290
sVground cayenne
p5291
(g5
tp5292
sVreduced sodium tamari soy sauce*
p5293
(g5
tp5294
sVpumpkin seed from packet
p5295
(g5
tp5296
sVfrac red bell pepper
p5297
(g5
tp5298
sVblack treacle
p5299
(g5
tp5300
sVtoasted cumin seed
p5301
(g5
tp5302
sVpackage strawberry flavored jell-o mix
p5303
(g5
tp5304
sVdark robust molasses
p5305
(g5
tp5306
sVpeaches-thinly sliced
p5307
(g5
tp5308
sVliquid
p5309
(g5
tp5310
sVbatch guacamole
p5311
(g5
tp5312
sVlemongrass stalk
p5313
(g5
tp5314
sVmeyerlemons
p5315
(g5
tp5316
sVwalnut optional
p5317
(g5
tp5318
sVmint leaf
p5319
(g5
tp5320
sVfrac garam masala
p5321
(g5
tp5322
sVmetal baking pan
p5323
(g5
tp5324
sVwhite quinoa
p5325
(g5
tp5326
sVoptional garnish sliced avocado
p5327
(g5
tp5328
sVfinely parmigiano-reggiano cheese
p5329
(g5
tp5330
sVcontainer light sour cream
p5331
(g5
tp5332
sV-quart covered saucepan
p5333
(g5
tp5334
sVnatural vanilla extract
p5335
(g5
tp5336
sVfrac allspice
p5337
(g5
tp5338
sVfrac red pepper flake
p5339
(g5
tp5340
sVone -to- pumpkin
p5341
(g5
tp5342
sVplus cream cheese
p5343
(g5
tp5344
sVbar plain chocolate cocoa
p5345
(g5
tp5346
sVheaped raspberry jam
p5347
(g5
tp5348
sVcreole seasoning link this
p5349
(g5
tp5350
sVcrabmeat
p5351
(g5
tp5352
sVtabasco optional
p5353
(g5
tp5354
sVpack value mozzarella
p5355
(g5
tp5356
sVlow-fat
p5357
(g5
tp5358
sVcaramel
p5359
(g5
tp5360
sVpinch cream tartar
p5361
(g5
tp5362
sVfull size dark milky way bar
p5363
(g5
tp5364
sVsour cream
p5365
(g5
tp5366
sVfinely pickle pickle relish
p5367
(g5
tp5368
sVsea salt cracked pepper
p5369
(g5
tp5370
sVgenerous sprinkling cinnamon
p5371
(g5
tp5372
sVqueso fresco feta
p5373
(g5
tp5374
sVunsweetened freshly whipped cream
p5375
(g5
tp5376
sVmayonnaise roasted jalapeno mayonnaise
p5377
(g5
tp5378
sVmild curry powder
p5379
(g5
tp5380
sVgemelli
p5381
(g5
tp5382
sVasiago parmigiano reggiano
p5383
(g5
tp5384
sVheaped natural yoghurt
p5385
(g5
tp5386
sVjalapeno pepper
p5387
(g5
tp5388
sVdiced avocado
p5389
(g5
tp5390
sVhoney agave
p5391
(g5
tp5392
sVpecorino parmesan
p5393
(g5
tp5394
sVgirl scout do-si-do cooky
p5395
(g5
tp5396
sV-ounce skinless salmon fillet
p5397
(g5
tp5398
sVcheddar-style soy cheese
p5399
(g5
tp5400
sVpolenta cornmeal
p5401
(g5
tp5402
sVamaretto liqueur
p5403
(g5
tp5404
sVextra sauce
p5405
(g5
tp5406
sVgood-quality strawberry jam
p5407
(g5
tp5408
sVwhite vinegar
p5409
(g5
tp5410
sVwhole blanched almond
p5411
(g5
tp5412
sVparsley chive
p5413
(g5
tp5414
sVsliced slivered almond
p5415
(g5
tp5416
sVnutella
p5417
(g5
tp5418
sVjalapeo
p5419
(g5
tp5420
sVenglish mustard
p5421
(g5
tp5422
sVwhipped heavy cream
p5423
(g5
tp5424
sVtable salt often use
p5425
(g5
tp5426
sVfrac cherry cranberry
p5427
(g5
tp5428
sVslender asparagus spear
p5429
(g5
tp5430
sVasian sesame oil
p5431
(g5
tp5432
sVcarbonated
p5433
(g5
tp5434
sVpeeled horseradish
p5435
(g5
tp5436
sVoptional dressing ingredient sriracha
p5437
(g5
tp5438
sVlevel hanout spice mix
p5439
(g5
tp5440
sVplump garlic
p5441
(g5
tp5442
sVplus freshly ground black pepper
p5443
(g5
tp5444
sVgood-quality cooking chocolate cocoa solid
p5445
(g5
tp5446
sVcilantro
p5447
(g5
tp5448
sVgenerous pinch red pepper flake
p5449
(g5
tp5450
sVdiced jalapeos
p5451
(g5
tp5452
sVglac cherry
p5453
(g5
tp5454
sVkaffir lime leaf
p5455
(g5
tp5456
sVhummus more
p5457
(g5
tp5458
sVbailey irish cream
p5459
(g5
tp5460
sVprovolone cheese
p5461
(g5
tp5462
sVvegan mayonnaise
p5463
(g5
tp5464
sVdry fusilli spiral pasta
p5465
(g5
tp5466
sVyoung leaf spinach
p5467
(g5
tp5468
sVcrumbled feta cheese
p5469
(g5
tp5470
sVarugula chard
p5471
(g5
tp5472
sVshelled walnut
p5473
(g5
tp5474
sVassorted olive
p5475
(g5
tp5476
sVsweetened flake coconut
p5477
(g5
tp5478
sVgenerous pinch thyme
p5479
(g5
tp5480
sVfrac cayenne powder optional
p5481
(g5
tp5482
sVtoasted shelled pumpkin seed
p5483
(g5
tp5484
sVwhole romaine leaf
p5485
(g5
tp5486
sVfreshly romano cheese
p5487
(g5
tp5488
sVarla dofino creamy havarti
p5489
(g5
tp5490
sVcubed
p5491
(g5
tp5492
sVfrac quick-cooking oat old-fashioned oat
p5493
(g5
tp5494
sVeggplant
p5495
(g5
tp5496
sVswiss gruyre cheese
p5497
(g5
tp5498
sVcrumbled feta goat cheese
p5499
(g5
tp5500
sVwhole
p5501
(g5
tp5502
sVwhole tangerine clementine
p5503
(g5
tp5504
sVthinly sliced swiss chard leaf from -ounce -gram
p5505
(g5
tp5506
sVkirsch
p5507
(g5
tp5508
sVbottle good beer
p5509
(g5
tp5510
sVbay leaf
p5511
(g5
tp5512
sVstrawberry jam clotted cream
p5513
(g5
tp5514
sVmini
p5515
(g5
tp5516
sVfrac triple sec
p5517
(g5
tp5518
sVjuniper berry
p5519
(g5
tp5520
sVseveral sprig basil
p5521
(g5
tp5522
sVseveral green olive martini olive
p5523
(g5
tp5524
sVsliced chive
p5525
(g5
tp5526
sVscallop
p5527
(g5
tp5528
sVveggie broth
p5529
(g5
tp5530
sVdelallo balsamic glaze
p5531
(g5
tp5532
sVgreen serrano chile
p5533
(g5
tp5534
sV-pound seedless watermelon
p5535
(g5
tp5536
sVbaguette about -inches
p5537
(g5
tp5538
sVfew soft goat cheese
p5539
(g5
tp5540
sVsprinkle ball
p5541
(g5
tp5542
sVroughly chive
p5543
(g5
tp5544
sVsalt pepper
p5545
(g5
tp5546
sVfinely pecorino romano
p5547
(g5
tp5548
sVbatch thai satay marinade
p5549
(g5
tp5550
sVbalsamic reduction regular balsamic vinegar
p5551
(g5
tp5552
sVbuttermilk
p5553
(g5
tp5554
sVbox box
p5555
(g5
tp5556
sVagave nectar honey you want sweeter filling
p5557
(g5
tp5558
sVparmesan vegetarian alternative
p5559
(g5
tp5560
sVslivered almond
p5561
(g5
tp5562
sVblueberry syrup
p5563
(g5
tp5564
sVfew courgette flower
p5565
(g5
tp5566
sVpanko
p5567
(g5
tp5568
sVfirm
p5569
(g5
tp5570
sVloosly packed basil
p5571
(g5
tp5572
sVclear honey
p5573
(g5
tp5574
sVcoarse bulgur wheat
p5575
(g5
tp5576
sVkosher sea salt himalayan salt
p5577
(g5
tp5578
sVleaf kale
p5579
(g5
tp5580
sVcream cheese
p5581
(g5
tp5582
sVsweetened cranberry
p5583
(g5
tp5584
sVdiced jicama
p5585
(g5
tp5586
sVdrop green food coloring
p5587
(g5
tp5588
sVtexas toast
p5589
(g5
tp5590
sVpackage shelled edamame
p5591
(g5
tp5592
sVdrop vanilla extract
p5593
(g5
tp5594
sVbrown mustard
p5595
(g5
tp5596
sVpackage taco seasoning mix homemade taco seasoning
p5597
(g5
tp5598
sVqueso fresco cotija cheese
p5599
(g5
tp5600
sVcarton chickpea
p5601
(g5
tp5602
sVgarnish with extra olive oil sprinkling herb
p5603
(g5
tp5604
sVfrac roasted red pepper
p5605
(g5
tp5606
sVjuice
p5607
(lp5608
Vzest from  lime
p5609
asVextra mint
p5610
(g5
tp5611
sVdill pickle
p5612
(g5
tp5613
sVtartar sauce
p5614
(g5
tp5615
sVpumpkin butternut squash flesh
p5616
(g5
tp5617
sVred chile pepper
p5618
(g5
tp5619
sVbengali five spice mix black sesame seed
p5620
(g5
tp5621
sVpackage cut okra
p5622
(g5
tp5623
sVloaf kosher salt black pepper
p5624
(g5
tp5625
sVhomemade taco seasoning store bought packet
p5626
(g5
tp5627
sVtin pineapple piece
p5628
(g5
tp5629
sVextra parmesan
p5630
(g5
tp5631
sVsemi-sweet chocolate
p5632
(g5
tp5633
sVmorello cherry jam
p5634
(g5
tp5635
sVfrac oregano
p5636
(g5
tp5637
sVsriracha
p5638
(g5
tp5639
sVreal
p5640
(g5
tp5641
sVlevel freshly nutmeg
p5642
(g5
tp5643
sVhoney agave nectar
p5644
(g5
tp5645
sVlevel baking powder
p5646
(g5
tp5647
sV*vanilla extract
p5648
(g5
tp5649
sVwell-rinsed quinoa
p5650
(g5
tp5651
sVfrac jalapeo pepper
p5652
(g5
tp5653
sVlillet blanc
p5654
(g5
tp5655
sVwhole marshmallow
p5656
(g5
tp5657
sVza'atar
p5658
(g5
tp5659
sVpure vanilla extract
p5660
(g5
tp5661
sVfew cinnamon
p5662
(g5
tp5663
sVdelicata squash
p5664
(g5
tp5665
sVfinely parsley
p5666
(g5
tp5667
sVdiced red pepper
p5668
(g5
tp5669
sVsante hermit
p5670
(g5
tp5671
sS'mushrooms '
p5672
(S'$ 2.164 per pound/453.6 grams'
p5673
g264
tp5674
sVwhole pepper jalapeno
p5675
(g5
tp5676
sVsteel cut oat
p5677
(g5
tp5678
sVground white pepper
p5679
(g5
tp5680
sVraspberry liqueur
p5681
(g5
tp5682
sVpiece cinnamon stick
p5683
(g5
tp5684
sVfish mix white salmon good used salmon fillet cod
p5685
(g5
tp5686
sVcherry pie filling
p5687
(g5
tp5688
sVmexican blend cheese
p5689
(g5
tp5690
sVheaped red chilli
p5691
(g5
tp5692
sVdelallo organic whole-wheat no-boil lasagna noodle
p5693
(g5
tp5694
sVfew grating nutmeg
p5695
(g5
tp5696
sVfrac chili powder
p5697
(g5
tp5698
sVstrawberry
p5699
(g5
tp5700
sVserve whipped cream
p5701
(g5
tp5702
sVdry thyme
p5703
(g5
tp5704
sVground fenugreek
p5705
(g5
tp5706
sVtamari shoyu
p5707
(g5
tp5708
sVenchilada size tortilla
p5709
(g5
tp5710
sVziti
p5711
(g5
tp5712
sVthyme leaf
p5713
(g5
tp5714
sVpeter reinhart
p5715
(g5
tp5716
sVgolden syrup
p5717
(g5
tp5718
sVbird eye chili
p5719
(g5
tp5720
sVpinch two salt
p5721
(g5
tp5722
sVmussel
p5723
(g5
tp5724
sVsmoked gouda cheese
p5725
(g5
tp5726
sVvegetable canola oil
p5727
(g5
tp5728
sVthin prosciutto
p5729
(g5
tp5730
sVground cumin
p5731
(g5
tp5732
sVsustainable white fish fillet
p5733
(g5
tp5734
sVside salmon
p5735
(g5
tp5736
sVflaky rye pie dough
p5737
(g5
tp5738
sVmixed -inch-thick sliced vegetable such japanese eggplant
p5739
(g5
tp5740
sVpinch turmeric
p5741
(g5
tp5742
sV-inch pie shell
p5743
(g5
tp5744
sVeaster sprinkle
p5745
(g5
tp5746
sVdry active yeast
p5747
(g5
tp5748
sVwhite hominy
p5749
(g5
tp5750
sVred chile paste
p5751
(g5
tp5752
sValmond breeze unsweetened almondmilk coconutmilk
p5753
(g5
tp5754
sVarla dofino creamy havarti cheese
p5755
(g5
tp5756
sVpineapple chunk
p5757
(g5
tp5758
sVplus extra virgin olive oil
p5759
(g5
tp5760
sVred pepper flake you n't want them spicy
p5761
(g5
tp5762
sVenchilada sauce
p5763
(g5
tp5764
sVredcurrant sauce
p5765
(g5
tp5766
sVflaky sea salt such maldon
p5767
(g5
tp5768
sVbottle guinness
p5769
(g5
tp5770
sVwhole natural almond
p5771
(g5
tp5772
sVrotel
p5773
(g5
tp5774
sVactive instant yeast active
p5775
(g5
tp5776
sVfinely ginger
p5777
(g5
tp5778
sVfig spread fig preserve you use plum
p5779
(g5
tp5780
sVdill flat-leaf parsley
p5781
(g5
tp5782
sVwhole chipotle pepper adobo sauce
p5783
(g5
tp5784
sVserve tarragon
p5785
(g5
tp5786
sVamp
p5787
(g5
tp5788
sVpeeled roasted chestnut
p5789
(g5
tp5790
sS'margarine'
p5791
(S'$ 2.345 per lb. '
p5792
tp5793
sVsprig coriander
p5794
(g5
tp5795
sVmixing bowl
p5796
(g5
tp5797
sVswiss gruyere with little parmesan cheese
p5798
(g5
tp5799
sVyellow mustard used coleman original english mustard
p5800
(g5
tp5801
sS'shoulder picnic'
p5802
(S'$ 1.08 per lb. '
p5803
g264
tp5804
sVpepper jack monterey jack cheese
p5805
(g5
tp5806
sVsea salt cracked black pepper
p5807
(g5
tp5808
sV-gram
p5809
(g5
tp5810
sVprepared weight pumpkin
p5811
(g5
tp5812
sVheaping organic edamame using edamame
p5813
(g5
tp5814
sS'grapefruit'
p5815
(S'$ 1.047 per lb. '
p5816
tp5817
sVcreme menthe liqueur
p5818
(g5
tp5819
sV-ounce container whole-milk ricotta
p5820
(g5
tp5821
sVfine table salt
p5822
(g5
tp5823
sVwhole bunch kale
p5824
(g5
tp5825
sVbundle scallion
p5826
(g5
tp5827
sVfluid jigger gin
p5828
(g5
tp5829
sVheaping coarse sea salt
p5830
(g5
tp5831
sVghee vegetable oil
p5832
(g5
tp5833
sVcontainer cream cheese flavored frosting such betty crocker rich creamy
p5834
(g5
tp5835
sVgruyere cheese
p5836
(g5
tp5837
sVpure coconut
p5838
(g5
tp5839
sVturkish bay leaf california
p5840
(g5
tp5841
sVground flaxseed
p5842
(g5
tp5843
sVpecan tart crust
p5844
(g5
tp5845
sV-thick ginger
p5846
(g5
tp5847
sVclam
p5848
(g5
tp5849
sVfrac strawberry
p5850
(g5
tp5851
sVseveral sauce
p5852
(g5
tp5853
sVfrac ground coriander
p5854
(g5
tp5855
sVpickling spice
p5856
(g5
tp5857
sVwhole almond
p5858
(g5
tp5859
sVmaple syrup
p5860
(g5
tp5861
sVsalted cashew
p5862
(g5
tp5863
sVthinly ribboned swiss chard leaf kale
p5864
(g5
tp5865
sVkrusteaz pancake mix
p5866
(g5
tp5867
sVbig toasted walnut
p5868
(g5
tp5869
sVgraviera gruyere
p5870
(g5
tp5871
sVred food coloring gel
p5872
(g5
tp5873
sVwhite dark chocolate
p5874
(g5
tp5875
sVmeasuring pourer
p5876
(g5
tp5877
sVlinguine pasta
p5878
(g5
tp5879
sVwhole canned chipotle pepper
p5880
(g5
tp5881
sV-ounce package instant yeast
p5882
(g5
tp5883
sVpackage baked pie shell
p5884
(g5
tp5885
sVpenne rigatoni
p5886
(g5
tp5887
sVbunch chive
p5888
(g5
tp5889
sVsea salt freshly ground black pepper
p5890
(g5
tp5891
sVsliced basil
p5892
(g5
tp5893
sVground veal
p5894
(g5
tp5895
sVwhole individually wrapped caramel square
p5896
(g5
tp5897
sVinstructionspreheat oven degree
p5898
(g5
tp5899
sVbunch spinach
p5900
(g5
tp5901
sVpinch chilli flake
p5902
(g5
tp5903
sVthinly sliced pepper optional
p5904
(g5
tp5905
sVfontina gruyere
p5906
(g5
tp5907
sVpiece peeled ginger
p5908
(g5
tp5909
sVcoarsely apricot
p5910
(g5
tp5911
sVcandle
p5912
(g5
tp5913
sVjapanese eggplant long
p5914
(g5
tp5915
sVtub double cream
p5916
(g5
tp5917
sVfinely ground white pepper
p5918
(g5
tp5919
sVsprig tarragon
p5920
(g5
tp5921
sVsargento chefstyle pepper jack cheese
p5922
(g5
tp5923
sVjerusalem artichoke
p5924
(g5
tp5925
sVcrumbled mexican cotija cheese salty
p5926
(g5
tp5927
sVstick stick
p5928
(g5
tp5929
sVbaking soda
p5930
(g5
tp5931
sVsquare semisweet chocolate
p5932
(g5
tp5933
sVfrac cardamom
p5934
(g5
tp5935
sVgreen chile enchilada sauce
p5936
(g5
tp5937
sVmore cocoa powder
p5938
(g5
tp5939
sVwhite silver tequila
p5940
(g5
tp5941
sVgenerous pinch sea salt kosher salt
p5942
(g5
tp5943
sVcoarse sea salt cracked black pepper
p5944
(g5
tp5945
sVlard
p5946
(g5
tp5947
sVtorn kale leaf whole spinach leaf
p5948
(g5
tp5949
sVbig toasted almond
p5950
(g5
tp5951
sVapricot-mango nectar
p5952
(g5
tp5953
sVbunch kale leaf spinach
p5954
(g5
tp5955
sVfrac vanilla wafer crumb
p5956
(g5
tp5957
sVrum
p5958
(g5
tp5959
sVhomemade pumpkin pie spice
p5960
(g5
tp5961
sVyellow sprinkle
p5962
(g5
tp5963
sVloosely packed spinach leaf
p5964
(g5
tp5965
sVbig sliced asparagus
p5966
(g5
tp5967
sVsunflower oil
p5968
(g5
tp5969
sVthyme thyme
p5970
(g5
tp5971
sVtin nestl carnation caramel
p5972
(g5
tp5973
sVold fashioned oat
p5974
(g5
tp5975
sVfine grain sea salt freshly ground black pepper
p5976
(g5
tp5977
sVfrac marcona almond
p5978
(g5
tp5979
sVzaatar middle eastern
p5980
(g5
tp5981
sVinstant active dry yeast
p5982
(g5
tp5983
sVraspberry
p5984
(g5
tp5985
sVspice such cinnamon nutmeg
p5986
(g5
tp5987
sVcanaola oil
p5988
(g5
tp5989
sVpinch aleppo pepper red pepper flake
p5990
(g5
tp5991
sVthick cut
p5992
(g5
tp5993
sVplenty torn basil
p5994
(g5
tp5995
sVfrac loosely packed cilantro
p5996
(g5
tp5997
sVpappardelle
p5998
(g5
tp5999
sV-ounce box brownie mix
p6000
(g5
tp6001
sVagave
p6002
(g5
tp6003
sS'beans'
p6004
(S'$ 1.333 per lb. '
p6005
tp6006
sVfew thyme sprig
p6007
(g5
tp6008
sVcalifornia chile pod
p6009
(g5
tp6010
sVsprig thyme
p6011
(g5
tp6012
sVmild-flavored honey
p6013
(g5
tp6014
sVwhole bell pepper
p6015
(g5
tp6016
sVfew twist freshly ground black pepper
p6017
(g5
tp6018
sVstrawberry with leaf
p6019
(g5
tp6020
sVsoy sauce used reduced-sodium tamari
p6021
(g5
tp6022
sVgarnish cilantro
p6023
(g5
tp6024
sVelderflower cordial
p6025
(g5
tp6026
sVmustard your favorite
p6027
(g5
tp6028
sVcontainer mascarpone cheese
p6029
(g5
tp6030
sVplain whole-milk greek-style yogurt**
p6031
(g5
tp6032
sVball stem ginger
p6033
(g5
tp6034
sVdirection line fine mesh strainer with several fold cheesecloth set your sink
p6035
(g5
tp6036
sVemmentaler gruyre cheese
p6037
(g5
tp6038
sVchili powder you n't like thing too spicy
p6039
(g5
tp6040
sVlevel ground cinnamon
p6041
(g5
tp6042
sVoz. barramundi fillet
p6043
(g5
tp6044
sVquart half-and-half cream
p6045
(g5
tp6046
sVfrac ground pepper
p6047
(g5
tp6048
sVbatch tomatillo pico gallo
p6049
(g5
tp6050
sVfrac pint heavy cream
p6051
(g5
tp6052
sVfrac vanilla salt
p6053
(g5
tp6054
sVwhole wheat elbow pasta use gluten-free pasta
p6055
(g5
tp6056
sVcilantro lime quinoa
p6057
(g5
tp6058
sS'hard candy'
p6059
(S'$ 2.435 per pound/453.6 grams'
p6060
g264
tp6061
sVheaped fennel seed
p6062
(g5
tp6063
sVcube pan-fried paneer
p6064
(g5
tp6065
sVwalnut pecan
p6066
(g5
tp6067
sVhomemade
p6068
(g5
tp6069
sVedible gold glitter
p6070
(g5
tp6071
sVsumac more
p6072
(g5
tp6073
sVfrac packed cilantro leaf
p6074
(g5
tp6075
sVheaped curry powder
p6076
(g5
tp6077
sVcontainer prepared chocolate frosting
p6078
(g5
tp6079
sVginger beer
p6080
(g5
tp6081
sVfrac soy sauce
p6082
(g5
tp6083
sVfeta cheese crumbles
p6084
(g5
tp6085
sVplus extra-virgin olive oil
p6086
(g5
tp6087
sVcoarse kosher salt coarse sea salt
p6088
(g5
tp6089
sVbunch kale leaf
p6090
(g5
tp6091
sVfettuccine
p6092
(g5
tp6093
sVgiant white chocolate button
p6094
(g5
tp6095
sVadditional pretzel toffee
p6096
(g5
tp6097
sVpinch oregano
p6098
(g5
tp6099
sVcarton buttermilk
p6100
(g5
tp6101
sVwholemeal bun
p6102
(g5
tp6103
sVjalapeo chile pepper
p6104
(g5
tp6105
sVoptional sweetener honey
p6106
(g5
tp6107
sVfew spinach
p6108
(g5
tp6109
sVguajillo
p6110
(g5
tp6111
sVscant vegetable broth
p6112
(g5
tp6113
sVcube tasso
p6114
(g5
tp6115
sS'cheddar cheese'
p6116
(S'$ 5.167 per lb. '
p6117
tp6118
sVpecorino romano cheese
p6119
(g5
tp6120
sVpinch red pepper flake several grind black pepper
p6121
(g5
tp6122
sVapricot
p6123
(g5
tp6124
sVsherry cooking sherry
p6125
(g5
tp6126
sVgood quality semi-sweet chocolate
p6127
(g5
tp6128
sVspinach pesto
p6129
(g5
tp6130
sVpinch saffron thread
p6131
(g5
tp6132
sVchocolate-hazelnut spread
p6133
(g5
tp6134
sVvanilla stevia
p6135
(g5
tp6136
sVfrac white miso paste
p6137
(g5
tp6138
sVthinly sliced jalape chile
p6139
(g5
tp6140
sVdill
p6141
(g5
tp6142
sVmyerss dark rum
p6143
(g5
tp6144
sVlollipopsticks
p6145
(g5
tp6146
sVitalian-style seasoning
p6147
(g5
tp6148
sVtub ricotta
p6149
(g5
tp6150
sVlittle neck clam
p6151
(g5
tp6152
sVfine cornmeal
p6153
(g5
tp6154
sVroasted red bell pepper
p6155
(g5
tp6156
sVsheet nori seaweed
p6157
(g5
tp6158
sVgenerous dollop creme fraiche
p6159
(g5
tp6160
sVfrac fine grain sea salt
p6161
(g5
tp6162
sVpackage raspberry
p6163
(g5
tp6164
sVfrac paprika
p6165
(g5
tp6166
sVpackage softened cream cheese
p6167
(g5
tp6168
sVyour home
p6169
(g5
tp6170
sVlot elderflower blossom
p6171
(g5
tp6172
sVchipotle chili adobo sauce
p6173
(g5
tp6174
sVbest dark chocolate
p6175
(g5
tp6176
sVlemon
p6177
(lp6178
Vparsley for garnish 
p6179
asVskinless cod fillet
p6180
(g5
tp6181
sV-milliliter bottle silver
p6182
(g5
tp6183
sVbunch dill
p6184
(g5
tp6185
sVheaping yellow cornmeal
p6186
(g5
tp6187
sVfirm tofu
p6188
(g5
tp6189
sVsaffron
p6190
(g5
tp6191
sVlot seasonal vegetable
p6192
(g5
tp6193
sVcolby-monterey jack cheese
p6194
(g5
tp6195
sVbittersweet disk fves
p6196
(g5
tp6197
sVenvelope quick-rising yeast
p6198
(g5
tp6199
sVmayonnaise
p6200
(g5
tp6201
sVfixins
p6202
(g5
tp6203
sVchile rbol red pepper flake
p6204
(g5
tp6205
sVground sea salt kosher salt
p6206
(g5
tp6207
sVmustard
p6208
(g5
tp6209
sVbasil cilantro
p6210
(g5
tp6211
sVmini marshmallow
p6212
(g5
tp6213
sVdrizzle toasted sesame oil
p6214
(g5
tp6215
sVdark rye
p6216
(g5
tp6217
sVspice blend your choice
p6218
(g5
tp6219
sVquinoa
p6220
(g5
tp6221
sVbiscoff spread
p6222
(g5
tp6223
sV-ounce bottle dark beer
p6224
(g5
tp6225
sVthin asparagus spear
p6226
(g5
tp6227
sVspinach arugula
p6228
(g5
tp6229
sVpint strawberry
p6230
(g5
tp6231
sVswede
p6232
(g5
tp6233
sVpinch ground cardamom
p6234
(g5
tp6235
sVcranberry sauce chutney
p6236
(g5
tp6237
sVsingle cream
p6238
(g5
tp6239
sVdiced yellow squash
p6240
(g5
tp6241
sVserve micro green cilantro
p6242
(g5
tp6243
sVlitre quality cider
p6244
(g5
tp6245
sVgranulated yeast
p6246
(g5
tp6247
sVbasil mint
p6248
(g5
tp6249
sVdiced strawberry
p6250
(g5
tp6251
sVsoy sauce
p6252
(g5
tp6253
sVsargento monterey jack cheese
p6254
(g5
tp6255
sVbasil pesto*
p6256
(g5
tp6257
sVpacked basil leaf
p6258
(g5
tp6259
sVcosteas
p6260
(g5
tp6261
sVartichoke heart quarter
p6262
(g5
tp6263
sVseveral tabasco
p6264
(g5
tp6265
sVnonstick vegetable oil spray
p6266
(g5
tp6267
sVartichoke heart
p6268
(g5
tp6269
sVfinely diced zucchini
p6270
(g5
tp6271
sVbig pinch ground cumin
p6272
(g5
tp6273
sVcaptain morgan black spiced rum
p6274
(g5
tp6275
sVextra strawberry
p6276
(g5
tp6277
sVmango chunk
p6278
(g5
tp6279
sVitalian seasoning herbes provence
p6280
(g5
tp6281
sVdiced rhubarb
p6282
(g5
tp6283
sVunpeeled shrimp count larger
p6284
(g5
tp6285
sVgreen pepper
p6286
(g5
tp6287
sVfine sea salt table salt
p6288
(g5
tp6289
sVliter ginger ale
p6290
(g5
tp6291
sV-ounce roasted red bell pepper
p6292
(g5
tp6293
sVmild salsa
p6294
(g5
tp6295
sV-ounce bottle red food coloring
p6296
(g5
tp6297
sVchilled goat cheese
p6298
(g5
tp6299
sVsplit red lentil
p6300
(g5
tp6301
sVwhole roasted red pepper
p6302
(g5
tp6303
sVjumbo marshmallow
p6304
(g5
tp6305
sVpeppermint bark
p6306
(g5
tp6307
sV-ounce package extra-firm tofu
p6308
(g5
tp6309
sVcanned bamboo shoot
p6310
(g5
tp6311
sVscant peppermint extract
p6312
(g5
tp6313
sVtriple sec
p6314
(g5
tp6315
sVfarfalle pasta
p6316
(g5
tp6317
sVpinch salt freshly ground black pepper
p6318
(g5
tp6319
sVhigh-heat cooking oil
p6320
(g5
tp6321
sVmozzarella cheese
p6322
(g5
tp6323
sVfinely spinach
p6324
(g5
tp6325
sVsoft cream cheese
p6326
(g5
tp6327
sVtabasco light pinch cayenne pepper
p6328
(g5
tp6329
sVwhole-milk ricotta
p6330
(g5
tp6331
sVingredient
p6332
(g5
tp6333
sVextra olive oil
p6334
(g5
tp6335
sVfrac raisin
p6336
(g5
tp6337
sVvanilla crme stevia
p6338
(g5
tp6339
sVpackage dalallo organic whole grain pasta
p6340
(g5
tp6341
sVlight soy sauce
p6342
(g5
tp6343
sVwasabi paste
p6344
(g5
tp6345
sVland lake cheese italian blend
p6346
(g5
tp6347
sVherbed boursin cheese
p6348
(g5
tp6349
sVpackage cheese tortellini
p6350
(g5
tp6351
sVpackage cream cheese
p6352
(g5
tp6353
sVmarinara sauce
p6354
(g5
tp6355
sVfrac ginger
p6356
(g5
tp6357
sVfrac ground chipotle chile powder
p6358
(g5
tp6359
sVketchup sriracha more
p6360
(g5
tp6361
sS'uncooked beef roasts'
p6362
(S'$ 5.479 per lb. '
p6363
tp6364
sVjack cheese
p6365
(g5
tp6366
sVcarton soured cream
p6367
(g5
tp6368
sVcoarsely garlic scapes*
p6369
(g5
tp6370
sVmelted coconut oil
p6371
(g5
tp6372
sVcurry paste
p6373
(g5
tp6374
sVherb provence
p6375
(g5
tp6376
sVchocolate wafer
p6377
(g5
tp6378
sVcherry booze clear rum
p6379
(g5
tp6380
sVasparagus
p6381
(g5
tp6382
sVlight rum
p6383
(g5
tp6384
sVgranulated suagar
p6385
(g5
tp6386
sVpackage package
p6387
(g5
tp6388
sVpepperoncinis
p6389
(g5
tp6390
sVwhite golden balsamic vinegar
p6391
(g5
tp6392
sVdevil food
p6393
(g5
tp6394
sVkorean red pepper powder
p6395
(g5
tp6396
sVsemi-sweet chocolate chunk
p6397
(g5
tp6398
sVcubed feta cheese
p6399
(g5
tp6400
sVcinnamon stick
p6401
(g5
tp6402
sVmaple flavoring
p6403
(g5
tp6404
sVsultana
p6405
(g5
tp6406
sVfrac cayenne
p6407
(g5
tp6408
sVmelted coconut oil olive oil
p6409
(g5
tp6410
sVfrac spinach
p6411
(g5
tp6412
sVdiced
p6413
(g5
tp6414
sVroughly blue diamond honey roasted cinnamon almond
p6415
(g5
tp6416
sVfromage frais
p6417
(g5
tp6418
sVhamburger bun
p6419
(g5
tp6420
sVcontainer whipped topping
p6421
(g5
tp6422
sVmarinade
p6423
(g5
tp6424
sVcourse ground yellow cornmeal
p6425
(g5
tp6426
sVseasonal vegetable
p6427
(g5
tp6428
sVground mustard freshly ground black pepper
p6429
(g5
tp6430
sV-to -ounce chickpea
p6431
(g5
tp6432
sVground red chile pepper
p6433
(g5
tp6434
sVextra pinch fine grain sea salt
p6435
(g5
tp6436
sVsprigs-worth rosemary leaf
p6437
(g5
tp6438
sS'sausage'
p6439
(S'$ 2.299 per lb. '
p6440
g264
tp6441
sS'cupcakes'
p6442
(S'$ 2.36 per pound/453.6 grams'
p6443
g264
tp6444
sVcrumbled queso fresco mild feta
p6445
(g5
tp6446
sVtarragon
p6447
(g5
tp6448
sVfrac melty cheese
p6449
(g5
tp6450
sVwhole black olive
p6451
(g5
tp6452
sS'frankfurters'
p6453
(S'$ 2.185 per lb. '
p6454
g264
tp6455
sVfarro bulgar wheat
p6456
(g5
tp6457
sVfrac curry powder choice
p6458
(g5
tp6459
sVnopales cactus paddle
p6460
(g5
tp6461
sVquantity barney roasted rhubarb see recipe
p6462
(g5
tp6463
sVwhole wheat plain breadcrumb
p6464
(g5
tp6465
sVcajun spice mix
p6466
(g5
tp6467
sVapplesauce
p6468
(g5
tp6469
sVcajun seasoning blend such tony chachere
p6470
(g5
tp6471
sVfrac mozzarella
p6472
(g5
tp6473
sVfinely pecorino
p6474
(g5
tp6475
sV-ounce wheel brie
p6476
(g5
tp6477
sVlevel cornflour
p6478
(g5
tp6479
sVnacho
p6480
(g5
tp6481
sVsalsa pico gallo
p6482
(g5
tp6483
sVboulange
p6484
(g5
tp6485
sVcocoa powder
p6486
(g5
tp6487
sVwhole green pepper
p6488
(g5
tp6489
sVfrac extra virgin olive oil
p6490
(g5
tp6491
sVbunch broccolini
p6492
(g5
tp6493
sVmarshmallow crme
p6494
(g5
tp6495
sVgnocchi
p6496
(g5
tp6497
sVraspberries
p6498
(lp6499
Vsprinkles
p6500
asVpacked cilantro leaf
p6501
(g5
tp6502
sVbunch scallion
p6503
(g5
tp6504
sVvinegar
p6505
(g5
tp6506
sVwholesome sweetener brand
p6507
(g5
tp6508
sVchunky marmalade
p6509
(g5
tp6510
sVoil-cured black olive
p6511
(g5
tp6512
sVfinely pecan
p6513
(g5
tp6514
sVserve lot pan-fried tofu cube
p6515
(g5
tp6516
sVactive dry yeast
p6517
(g5
tp6518
sVchili sauce
p6519
(g5
tp6520
sVkroger chickpea
p6521
(g5
tp6522
sVchunk ginger
p6523
(g5
tp6524
sVwhole lime
p6525
(g5
tp6526
sVchipotle powder smoked paprika
p6527
(g5
tp6528
sVmexican vanilla extract
p6529
(g5
tp6530
sVrussian dressing
p6531
(g5
tp6532
sVmexcian crema crme frache
p6533
(g5
tp6534
sVcrumbled queso fresco cotija cheese
p6535
(g5
tp6536
sVgood dill
p6537
(g5
tp6538
sVwhole rind from one wedge parmesan
p6539
(g5
tp6540
sVfrac crumbled feta
p6541
(g5
tp6542
sVcoarse salt pepper
p6543
(g5
tp6544
sViced-tea
p6545
(g5
tp6546
sVclear vanilla extract
p6547
(g5
tp6548
sVsoured cream
p6549
(g5
tp6550
sVpure pumpkin
p6551
(g5
tp6552
sVpowdered gelatin
p6553
(g5
tp6554
sVchile rbol
p6555
(g5
tp6556
sVnatural applesauce
p6557
(g5
tp6558
sVpackage tofu
p6559
(g5
tp6560
sVpackage brownie mix
p6561
(g5
tp6562
sVcube parsley
p6563
(g5
tp6564
sVjarred roasted red pepper
p6565
(g5
tp6566
sVlime
p6567
(g5
tp6568
sVcolby cheese
p6569
(g5
tp6570
sVsweetened coconut flake
p6571
(g5
tp6572
sVspicy pepper cheese
p6573
(g5
tp6574
sVfrac water*
p6575
(g5
tp6576
sVfeta goat cheese blue cheese
p6577
(g5
tp6578
sV-ounce pineapple
p6579
(g5
tp6580
sVfew sprig cilantro
p6581
(g5
tp6582
sVnatural peppermint oil
p6583
(g5
tp6584
sVtoffee bit
p6585
(g5
tp6586
sVliquid glucose
p6587
(g5
tp6588
sVassorted meat
p6589
(g5
tp6590
sVfrac good maple syrup
p6591
(g5
tp6592
sVpinch salt pepper
p6593
(g5
tp6594
sVgruyre pecorino romano cheese
p6595
(g5
tp6596
sVminute before youre ready bake them
p6597
(g5
tp6598
sVfrac quartered kalamata olive
p6599
(g5
tp6600
sVdrop drop
p6601
(g5
tp6602
sVunsweetened applesauce
p6603
(g5
tp6604
sVedamame
p6605
(g5
tp6606
sVlow-sodium vegetable broth
p6607
(g5
tp6608
sVfrac reduced fat sour cream
p6609
(g5
tp6610
sVfinely ginger about -inch nub ginger
p6611
(g5
tp6612
sVcrema sour cream
p6613
(g5
tp6614
sVrum flavoring
p6615
(g5
tp6616
sVred-pepper flake
p6617
(g5
tp6618
sVpiece texas toast
p6619
(g5
tp6620
sVdigestive biscuit
p6621
(g5
tp6622
sVcream soda
p6623
(g5
tp6624
sVanchovy paste anchovy
p6625
(g5
tp6626
sVrabbit
p6627
(g5
tp6628
sVgherkin
p6629
(g5
tp6630
sVwhisky
p6631
(g5
tp6632
sVgarlic powder
p6633
(g5
tp6634
sV-inch square sheet nori seaweed
p6635
(g5
tp6636
sS'rice'
p6637
(S'$ 0.663 per lb. '
p6638
tp6639
sVwhole basil leaf torn
p6640
(g5
tp6641
sVmixed smelly cheese such brie
p6642
(g5
tp6643
sVmixed shellfish used combination shrimp
p6644
(g5
tp6645
sVtub mascarpone
p6646
(g5
tp6647
sVred chicory
p6648
(g5
tp6649
sVoptional garnish diced avocado
p6650
(g5
tp6651
sVgood-quality green olive
p6652
(g5
tp6653
sVday old cubed bread*
p6654
(g5
tp6655
sVfrac frac cayenne pepper
p6656
(g5
tp6657
sVblind-baked pie crust deep-dish glass metal pie pan
p6658
(g5
tp6659
sVoregano parsley
p6660
(g5
tp6661
sVseasoning taco seasoning
p6662
(g5
tp6663
sVhigh quality semisweet bittersweet chocolate
p6664
(g5
tp6665
sVtap
p6666
(g5
tp6667
sVlevel ground allspice
p6668
(g5
tp6669
sVlow fat sour cream
p6670
(g5
tp6671
sVfish sauce
p6672
(g5
tp6673
sVtandoori masala
p6674
(g5
tp6675
sVyour favorite balsamic vinaigrette
p6676
(g5
tp6677
sVskin-on
p6678
(g5
tp6679
sVreserved vinegar mixture
p6680
(g5
tp6681
sVcaptain morgan original spiced rum
p6682
(g5
tp6683
sVpeeled finely horseradish
p6684
(g5
tp6685
sS'onions'
p6686
(S'$ 0.261 per lb. '
p6687
g264
tp6688
sVbit freshly shaved parmesan
p6689
(g5
tp6690
sVinstant yeast gram
p6691
(g5
tp6692
sVrose cinnamon sugar*
p6693
(g5
tp6694
sVfreshly toasted pecan
p6695
(g5
tp6696
sVpinch ground ginger
p6697
(g5
tp6698
sVpunnet blueberry
p6699
(g5
tp6700
sVrhubarb
p6701
(g5
tp6702
sVcoarsely bittersweet chocolate
p6703
(g5
tp6704
sVgenerous arugula
p6705
(g5
tp6706
sVbeet green
p6707
(g5
tp6708
sVfrac frac agave nectar
p6709
(g5
tp6710
sVhob nob
p6711
(g5
tp6712
sVground sea salt black pepper
p6713
(g5
tp6714
sVpizza crust
p6715
(g5
tp6716
sVpint mixed berry sliced strawberry
p6717
(g5
tp6718
sVfeta
p6719
(g5
tp6720
sVadobo sauce chipotle sauce
p6721
(g5
tp6722
sV-ounce sheet puff pastry
p6723
(g5
tp6724
sV-ounce package spinach
p6725
(g5
tp6726
sVpure pumpkin used libby canned pumpkin
p6727
(g5
tp6728
sVold paso stand stuff soft taco shell
p6729
(g5
tp6730
sV've had success with
p6731
(g5
tp6732
sVstock
p6733
(g5
tp6734
sVsize green enchilada sauce
p6735
(g5
tp6736
sVstick cinnamon
p6737
(g5
tp6738
sVfrac
p6739
(g5
tp6740
sVlight sour cream
p6741
(g5
tp6742
sVpack massaman curry paste
p6743
(g5
tp6744
sVnature seasoning
p6745
(g5
tp6746
sVsalemville amish blue cheese crumbles
p6747
(g5
tp6748
sVgirl scout tagalong
p6749
(g5
tp6750
sVmixed
p6751
(g5
tp6752
sVblack pepper
p6753
(g5
tp6754
sVlight eggnog
p6755
(g5
tp6756
sVrolos
p6757
(g5
tp6758
sS'cabbage'
p6759
(S'$ 0.343 per lb. '
p6760
g264
tp6761
sValuminum-free baking powder
p6762
(g5
tp6763
sVcream cheese with chive
p6764
(g5
tp6765
sV-inch cinnamon stick
p6766
(g5
tp6767
sVfinely cilantro leaf
p6768
(g5
tp6769
sVsplash worcestershire sauce
p6770
(g5
tp6771
sVbuttermilk*
p6772
(g5
tp6773
sVoptional topping hamburger bun
p6774
(g5
tp6775
sVpack chocolate finger biscuit
p6776
(g5
tp6777
sVlight
p6778
(g5
tp6779
sVfrac cayenne pepper optional
p6780
(g5
tp6781
sVseeded jalapeo pepper
p6782
(g5
tp6783
sVfish vegetable stock
p6784
(g5
tp6785
sVfrac blue curaao
p6786
(g5
tp6787
sVserve little dollop salted creme fraiche drizzle olive oil
p6788
(g5
tp6789
sVbuttermilk**
p6790
(g5
tp6791
sVblack beluga lentil
p6792
(g5
tp6793
sVjarred marinara pizza sauce
p6794
(g5
tp6795
sVsplash brandy
p6796
(g5
tp6797
sVcouple splash olive oil
p6798
(g5
tp6799
sVsize pumpkin puree
p6800
(g5
tp6801
sVtomatillo
p6802
(g5
tp6803
sVfrac ground nutmeg
p6804
(g5
tp6805
sVsemi-sweet chocolate bar
p6806
(g5
tp6807
sVhigh quality popcorn kernel
p6808
(g5
tp6809
sVpowdered sugar*
p6810
(g5
tp6811
sVblack quinoa
p6812
(g5
tp6813
sVbay scallop
p6814
(g5
tp6815
sVwhole roasted
p6816
(g5
tp6817
sVjarred red pepper oil
p6818
(g5
tp6819
sVbox instant vanilla pudding
p6820
(g5
tp6821
sVplus fine salt
p6822
(g5
tp6823
sVfew pita
p6824
(g5
tp6825
sVfreshly ground coriander
p6826
(g5
tp6827
sVkabocha squash
p6828
(g5
tp6829
sViberico chorizo
p6830
(g5
tp6831
sVmicro sprout
p6832
(g5
tp6833
sVmint leaf bunch
p6834
(g5
tp6835
sVred pepper flake this yield very spicy pickle
p6836
(g5
tp6837
sVcurd cottage cheese
p6838
(g5
tp6839
sVbuttered
p6840
(g5
tp6841
sVheavy cream use half-and-half
p6842
(g5
tp6843
sVgarnish toasted slivered almond
p6844
(g5
tp6845
sVmint sprig
p6846
(g5
tp6847
sVbasil pesto homemade store-bought
p6848
(g5
tp6849
sVherb olive oil
p6850
(g5
tp6851
sVpure sesame oil
p6852
(g5
tp6853
sVwalnut
p6854
(g5
tp6855
sVoil-packed black olive
p6856
(g5
tp6857
sVfrac ground allspice
p6858
(g5
tp6859
sVmild salsa verde
p6860
(g5
tp6861
sVricotta
p6862
(g5
tp6863
sVwhole star anise
p6864
(g5
tp6865
sVlight mayo
p6866
(g5
tp6867
sVreal maple syrup honey
p6868
(g5
tp6869
sVavocado dressing
p6870
(g5
tp6871
sS'flour'
p6872
(S'$ 0.523 per lb. '
p6873
tp6874
sVold fashioned oat use gluten-free oat
p6875
(g5
tp6876
sVunsweetened whipped cream
p6877
(g5
tp6878
sVinstant yeast
p6879
(g5
tp6880
sS'oranges'
p6881
(S'$ 1.156 per lb. '
p6882
tp6883
sVsaucepan
p6884
(g5
tp6885
sVbunch basil leaf
p6886
(g5
tp6887
sVenchilada red sauce
p6888
(g5
tp6889
sVthinly sliced scallion
p6890
(g5
tp6891
sVstout
p6892
(g5
tp6893
sVkosher coarse sea salt
p6894
(g5
tp6895
sVmedjool date
p6896
(g5
tp6897
sVcoriander
p6898
(g5
tp6899
sVred thai chile red jalape
p6900
(g5
tp6901
sVstem rosemary
p6902
(g5
tp6903
sVsoftened cream cheese dip such rondelle
p6904
(g5
tp6905
sVhalibut
p6906
(g5
tp6907
sVvanilla wafer
p6908
(g5
tp6909
sVpasilla
p6910
(g5
tp6911
sVromanesco floret
p6912
(g5
tp6913
sVoptional topping pickle
p6914
(g5
tp6915
sVtilapia fillet
p6916
(g5
tp6917
sVfrac parmesan
p6918
(g5
tp6919
sVwing sauce
p6920
(g5
tp6921
sVcurry powder containing turmeric
p6922
(g5
tp6923
sVwhite chocolate
p6924
(g5
tp6925
sVthawed jarred artichoke heart
p6926
(g5
tp6927
sVlight cream
p6928
(g5
tp6929
sVpeppermint patty
p6930
(g5
tp6931
sVsabra classic hummus
p6932
(g5
tp6933
sVanchovy fillet
p6934
(g5
tp6935
sVdijon
p6936
(g5
tp6937
sVfrac california avocado
p6938
(g5
tp6939
sVlime zest
p6940
(g5
tp6941
sVloosely packed basil leaf
p6942
(g5
tp6943
sVtaco seasoning
p6944
(g5
tp6945
sVtepid
p6946
(g5
tp6947
sVjalapeo pepper serrano pepper
p6948
(g5
tp6949
sVmincemeat
p6950
(g5
tp6951
sVpinchof salt
p6952
(g5
tp6953
sVdefrosted spinach
p6954
(g5
tp6955
sVspice island ground cinnamon
p6956
(g5
tp6957
sVspinach basil pesto
p6958
(g5
tp6959
sVdry fettuccine pasta
p6960
(g5
tp6961
sVlentil
p6962
(g5
tp6963
sVdry lentil
p6964
(g5
tp6965
sVfreshly ground black pepper
p6966
(g5
tp6967
sVwhole peeled garlic
p6968
(g5
tp6969
sVstrawberry jam your favorite jam
p6970
(g5
tp6971
sVlukewarm
p6972
(g5
tp6973
sVchocolate hazelnut spread
p6974
(g5
tp6975
sVunfiltered sunflower oil
p6976
(g5
tp6977
sV-ounce chickpea
p6978
(g5
tp6979
sVwhole english muffin split
p6980
(g5
tp6981
sVsummer squash
p6982
(g5
tp6983
sVwhole pizza crust
p6984
(g5
tp6985
sVheavy cream
p6986
(g5
tp6987
sVbarley
p6988
(g5
tp6989
sVwhole jalapeno pepper
p6990
(g5
tp6991
sVcoarsely ground whole black peppercorn
p6992
(g5
tp6993
sVbunch coriander
p6994
(g5
tp6995
sVpinch basil
p6996
(g5
tp6997
sVslotted cooking
p6998
(g5
tp6999
sVred
p7000
(g5
tp7001
sVred jalape fresno holland chile
p7002
(g5
tp7003
sVheaped baking powder
p7004
(g5
tp7005
sVasiago mozzarella cheese
p7006
(g5
tp7007
sVcreme fraiche sour cream
p7008
(g5
tp7009
sVwhatever else strike your fancy
p7010
(g5
tp7011
sVanother favorite way brussels sprout brussels sprout ribbon
p7012
(g5
tp7013
sVfrac asiago cheese
p7014
(g5
tp7015
sVcoarse kosh salt
p7016
(g5
tp7017
sVthai red curry paste* depending preferred spice level
p7018
(g5
tp7019
sVspinach kale
p7020
(g5
tp7021
sVscant creme fraiche sour cream
p7022
(g5
tp7023
sVmozzarella-sliced
p7024
(g5
tp7025
sVjapanese eggplant
p7026
(g5
tp7027
sVtoasted walnut
p7028
(g5
tp7029
sVcreamy dijon mustard
p7030
(g5
tp7031
sV-inch-thick baguette from baguette least
p7032
(g5
tp7033
sVpackage butterscotch instant pudding mix
p7034
(g5
tp7035
sVred chilli
p7036
(g5
tp7037
sVhungarian sweet paprika
p7038
(g5
tp7039
sVfrac pepitas
p7040
(g5
tp7041
sVfew whole
p7042
(g5
tp7043
sVpotsticker wrapper
p7044
(g5
tp7045
sVancho chile powder
p7046
(g5
tp7047
sVthai-spiced pumpkin soup
p7048
(g5
tp7049
sVgood spinach
p7050
(g5
tp7051
sVorganic
p7052
(g5
tp7053
sVplastic wrap
p7054
(g5
tp7055
sVseafood seasoning
p7056
(g5
tp7057
sVfontina cheese low-moisture
p7058
(g5
tp7059
sVfluid coconut-flavored rum
p7060
(g5
tp7061
sS'potato chips'
p7062
(S'$ 4.045 per 16 oz.'
p7063
tp7064
sVrounded salt
p7065
(g5
tp7066
sVreal maple syrup
p7067
(g5
tp7068
sVro-tel
p7069
(g5
tp7070
sVoven safe bowl
p7071
(g5
tp7072
sVstone ground grit
p7073
(g5
tp7074
sVred green chilli
p7075
(g5
tp7076
sVbulgur wheat
p7077
(g5
tp7078
sVcured spanish chorizo
p7079
(g5
tp7080
sVsplenda calorie sweetener
p7081
(g5
tp7082
sVflaked sea salt
p7083
(g5
tp7084
sVpackage savoiardi ladyfinger
p7085
(g5
tp7086
sVbuttery sweet dough emulsion
p7087
(g5
tp7088
sVvanilla almond extract
p7089
(g5
tp7090
sVchipotle pepper adobo
p7091
(g5
tp7092
sVwhite chocolate chunk
p7093
(g5
tp7094
sVlemonade concentrate
p7095
(g5
tp7096
sVblack kalamata olive
p7097
(g5
tp7098
sVfrac loosely packed parsley
p7099
(g5
tp7100
sVwhole zucchini
p7101
(g5
tp7102
sVsplash cherry liqueur
p7103
(g5
tp7104
sVdrop yellow food coloring *optional
p7105
(g5
tp7106
sVbottle ketchup chili sauce make sure kosher
p7107
(g5
tp7108
sVnon-stick cooking spray
p7109
(g5
tp7110
sVchili-garlic sauce
p7111
(g5
tp7112
sVsprinkling sesame seed
p7113
(g5
tp7114
sVdark molasses
p7115
(g5
tp7116
sVdiced green chile pepper
p7117
(g5
tp7118
sVwhole strawberry
p7119
(g5
tp7120
sVanaheim poblano chile
p7121
(g5
tp7122
sVparsnip
p7123
(g5
tp7124
sVricotta cheese use low-fat
p7125
(g5
tp7126
sS'bologna'
p7127
(S'$ 3.545 per lb. '
p7128
g264
tp7129
sVcrumbled gorgonzola goat cheese
p7130
(g5
tp7131
sVfinish good olive oil
p7132
(g5
tp7133
sV-ounce tub whipped topping
p7134
(g5
tp7135
sVtoasted pistachio
p7136
(g5
tp7137
sVartichoke heart quartered whole drained
p7138
(g5
tp7139
sVdry ranch salad dressing mix
p7140
(g5
tp7141
sVgranola more
p7142
(g5
tp7143
sVfontina cheese
p7144
(g5
tp7145
sVteaspoosn coconut extract
p7146
(g5
tp7147
sVabout heavy cream
p7148
(g5
tp7149
sVscant
p7150
(g5
tp7151
sVquart plain popped popcorn
p7152
(g5
tp7153
sVmore kale collard green
p7154
(g5
tp7155
sVfrac farro
p7156
(g5
tp7157
sVlow sodium vegetable broth
p7158
(g5
tp7159
sVphilly cream cheese
p7160
(g5
tp7161
sVpacked kale
p7162
(g5
tp7163
sVdiced red
p7164
(g5
tp7165
sVchampagne tarragon vinegar
p7166
(g5
tp7167
sVbottled purified
p7168
(g5
tp7169
sVsplash vanilla
p7170
(g5
tp7171
sVtuscan kale leaf -inch-long piece torn from stemmed leaf
p7172
(g5
tp7173
sVshallot
p7174
(g5
tp7175
sVkroger sliced chestnut
p7176
(g5
tp7177
sVgenerous pinch kosher sea salt
p7178
(g5
tp7179
sVpackage cool whip
p7180
(g5
tp7181
sV-oz package cranberry
p7182
(g5
tp7183
sVyoung spinach
p7184
(g5
tp7185
sVwhole whole-wheat tortilla
p7186
(g5
tp7187
sVfew rapeseed olive oil
p7188
(g5
tp7189
sVsalami
p7190
(g5
tp7191
sVmaple extract flavoring
p7192
(g5
tp7193
sVarrowroot starch cornstarch
p7194
(g5
tp7195
sS'ground chuck'
p7196
(S'$ 1.834 per lb. '
p7197
g264
tp7198
sVseedless watermelon
p7199
(g5
tp7200
sVdill mint
p7201
(g5
tp7202
sVplain chocolate
p7203
(g5
tp7204
sVcrumbled amaretti crust
p7205
(g5
tp7206
sV-ounce piece semisweet chocolate
p7207
(g5
tp7208
sVstrawberry preserve
p7209
(g5
tp7210
sVchipotle pepper packed adobo
p7211
(g5
tp7212
sVserving shrimp
p7213
(g5
tp7214
sVfreshly ginger
p7215
(g5
tp7216
sVshrimp stock
p7217
(g5
tp7218
sVvery finely pecan
p7219
(g5
tp7220
sVdry mustard powder
p7221
(g5
tp7222
sVground coriander
p7223
(g5
tp7224
sVlowfat cottage cheese
p7225
(g5
tp7226
sVtoasted sesame seed
p7227
(g5
tp7228
sVpiece parmesan rind
p7229
(g5
tp7230
sVromaine heart
p7231
(g5
tp7232
sVstar anise
p7233
(g5
tp7234
sVgarlic chile paste
p7235
(g5
tp7236
sVcooking oil
p7237
(g5
tp7238
sS'carrots'
p7239
(S'$ 0.449 per lb. '
p7240
g264
tp7241
sVnewman own sesame ginger dressing
p7242
(g5
tp7243
sVvanilla extract cognac
p7244
(g5
tp7245
sVbatch hollandaise sauce see 'goes well with below
p7246
(g5
tp7247
sVfreshly parmesan-reggiano romano cheese
p7248
(g5
tp7249
sVmini pepper
p7250
(g5
tp7251
sVbunch basil
p7252
(g5
tp7253
sVfinely fig
p7254
(g5
tp7255
sVscone
p7256
(g5
tp7257
sVpackage vanilla instant pudding mix
p7258
(g5
tp7259
sVmild chilli
p7260
(g5
tp7261
sVheaped flaky sea salt table salt
p7262
(g5
tp7263
sVchilled heavy whipping cream
p7264
(g5
tp7265
sValeppo pepper* red pepper plus hungarian sweet paprika
p7266
(g5
tp7267
sVpure peppermint extract
p7268
(g5
tp7269
sV-ounce artichoke heart
p7270
(g5
tp7271
sVcouple dozen tostada shells*
p7272
(g5
tp7273
sVsprig flat-leaf parsley
p7274
(g5
tp7275
sVmini pretzel
p7276
(g5
tp7277
sVstrawberry yield frac sliced strawberry
p7278
(g5
tp7279
sVtiny drop almond extract vanilla extract
p7280
(g5
tp7281
sVwhole package mixed salad green
p7282
(g5
tp7283
sVpineapple ring
p7284
(g5
tp7285
sVchocolate curl
p7286
(g5
tp7287
sVlight dark molasses
p7288
(g5
tp7289
sVparmesan cheese shaving
p7290
(g5
tp7291
sVunpopped popcorn
p7292
(g5
tp7293
sVskinless smoked haddock fillet
p7294
(g5
tp7295
sVcranberry raisin
p7296
(g5
tp7297
sVcrumbled blue cheese
p7298
(g5
tp7299
sVprepared coarse-ground mustard
p7300
(g5
tp7301
sVromaine
p7302
(g5
tp7303
sVstewed
p7304
(g5
tp7305
sVthin provolone cheese
p7306
(g5
tp7307
sVfrac sour cream
p7308
(g5
tp7309
sVwhole oreo
p7310
(g5
tp7311
sVstout porter beer
p7312
(g5
tp7313
sVpercent pumpkin roasted pumpkin*
p7314
(g5
tp7315
sVroasted pumpkin winter squash
p7316
(g5
tp7317
sVbunch thyme
p7318
(g5
tp7319
sVumbrian lentil lentil puy
p7320
(g5
tp7321
sVmanchego cheese
p7322
(g5
tp7323
sVavocado halved
p7324
(g5
tp7325
sV-ounce pineapple chunk
p7326
(g5
tp7327
sVheavy whipping cream not ultra-pasteurized
p7328
(g5
tp7329
sVtiny sea salt
p7330
(g5
tp7331
sVwhole sheet puffed pastry
p7332
(g5
tp7333
sVgreen jalapeno chile
p7334
(g5
tp7335
sVwhole wheat tortilla
p7336
(g5
tp7337
sVjalapeos
p7338
(g5
tp7339
sV-ounce salsa
p7340
(g5
tp7341
sVbicarbonate soda
p7342
(g5
tp7343
sVplus sugar**
p7344
(g5
tp7345
sVwhole storebought pie crust
p7346
(g5
tp7347
sVchili oil chili sauce
p7348
(g5
tp7349
sVsemisweet bittersweet chocolate not exceed
p7350
(g5
tp7351
sVfinely mint leaf
p7352
(g5
tp7353
sV-inch segment thin day-old baguette
p7354
(g5
tp7355
sVsea salt freshly milled black pepper
p7356
(g5
tp7357
sVgruyere
p7358
(g5
tp7359
sVpinch ground coriander
p7360
(g5
tp7361
sVsea salt pepper
p7362
(g5
tp7363
sVoptional rosemary
p7364
(g5
tp7365
sVwhite miso paste
p7366
(g5
tp7367
sVmozzarella ball
p7368
(g5
tp7369
sS'chicken'
p7370
(S'$ 1.527 per lb. '
p7371
tp7372
sVmint basil leaf little chilli
p7373
(g5
tp7374
sVwhole grain pancake mix
p7375
(g5
tp7376
sVready-made english mustard
p7377
(g5
tp7378
sVtop heavy cream
p7379
(g5
tp7380
sVpackage spinach
p7381
(g5
tp7382
sVnew mexico chile pod
p7383
(g5
tp7384
sVsweetcorn
p7385
(g5
tp7386
sVlightly packed cilantro leaf
p7387
(g5
tp7388
sVpinch nutmeg optional
p7389
(g5
tp7390
sVone-and-a-half inch chunk ginger
p7391
(g5
tp7392
sVroughly
p7393
(g5
tp7394
sVold fashioned rolled oat quick oat are okay
p7395
(g5
tp7396
sVsauce used tabasco more
p7397
(g5
tp7398
sVcrumbled pequin chilies red pepper flake
p7399
(g5
tp7400
sVcoarsely ground black pepper
p7401
(g5
tp7402
sVfrac ground ginger
p7403
(g5
tp7404
sVpumpkin butternut squash
p7405
(g5
tp7406
sVfrac ground turmeric
p7407
(g5
tp7408
sVnatural yoghurt
p7409
(g5
tp7410
sVthinly sliced provolone cheese
p7411
(g5
tp7412
sVregular oreo cooky
p7413
(g5
tp7414
sVfrac walnut piece
p7415
(g5
tp7416
sVshelled edamame
p7417
(g5
tp7418
sVsweet chili sauce
p7419
(g5
tp7420
sVpackage vegetarian burger crumbles
p7421
(g5
tp7422
sVswiss chard
p7423
(g5
tp7424
sVmolasses
p7425
(g5
tp7426
sVprepared dijon-style mustard
p7427
(g5
tp7428
sVsmoked salmon
p7429
(g5
tp7430
sVcajun spice
p7431
(g5
tp7432
sVjicama
p7433
(g5
tp7434
sVparsley cilantro
p7435
(g5
tp7436
sVoregano dill
p7437
(g5
tp7438
sVheaped chilli powder
p7439
(g5
tp7440
sVolive canola oil
p7441
(g5
tp7442
sVrhubarb stalk
p7443
(g5
tp7444
sVpie crust
p7445
(g5
tp7446
sVndash cinnamon stick
p7447
(g5
tp7448
sVunsulphured molasses
p7449
(g5
tp7450
sVsemisweet chocolate
p7451
(g5
tp7452
sVnutmeg
p7453
(g5
tp7454
sVgram
p7455
(g5
tp7456
sVpackage oreo cooky
p7457
(g5
tp7458
sVbottle mountain dew
p7459
(g5
tp7460
sVartichoke
p7461
(g5
tp7462
sVpackage about size firm tofu
p7463
(g5
tp7464
sVglobe artichoke
p7465
(g5
tp7466
sVbig almond
p7467
(g5
tp7468
sS'malt beverages'
p7469
(S'$ 1.449 per 16 oz. '
p7470
tp7471
sV-inch piece asparagus
p7472
(g5
tp7473
sVroasted pumpkin salad
p7474
(g5
tp7475
sVyour favorite burger fixing avocado guacamole
p7476
(g5
tp7477
sVoptional piece ferro rocher chocolate
p7478
(g5
tp7479
sVunsweetened cocoa powder
p7480
(g5
tp7481
sVrye crust
p7482
(g5
tp7483
sVkimchi
p7484
(g5
tp7485
sVgarnish sprinkling additional basil
p7486
(g5
tp7487
sVsachet fast-action yeast
p7488
(g5
tp7489
sVpacked
p7490
(g5
tp7491
sVkosher salt plus more
p7492
(g5
tp7493
sVvegetable broth one -ounce
p7494
(g5
tp7495
sVadditional vegetable
p7496
(g5
tp7497
sVfrac shallot
p7498
(g5
tp7499
sVheaped ground cardamom
p7500
(g5
tp7501
sVcream-style horseradish sauce
p7502
(g5
tp7503
sVbaking pan
p7504
(g5
tp7505
sVpackage strawberry
p7506
(g5
tp7507
sVpoblano pepper
p7508
(g5
tp7509
sVfrac roughly basil
p7510
(g5
tp7511
sVwhole wheat lasagna noodle
p7512
(g5
tp7513
sVfood mill chinois sieve
p7514
(g5
tp7515
sVmysterious thurdays
p7516
(g5
tp7517
sVbutternut
p7518
(g5
tp7519
sValmond breeze almondmilk unsweetened vanilla
p7520
(g5
tp7521
sVgreen salad
p7522
(g5
tp7523
sVgrainy mustard
p7524
(g5
tp7525
sVvegetable olive oil
p7526
(g5
tp7527
sVraisin sweetened cranberry
p7528
(g5
tp7529
sVyeast extract
p7530
(g5
tp7531
sVchili pepper
p7532
(g5
tp7533
sVfinely grana padano parmesan
p7534
(g5
tp7535
sVreduced fat pepper jack cheese
p7536
(g5
tp7537
sVcauliflower
p7538
(g5
tp7539
sVfrac madras curry powder
p7540
(g5
tp7541
sVfinely snipped chive
p7542
(g5
tp7543
sVlow-fat cream cheese
p7544
(g5
tp7545
sVseasonal salad leaf
p7546
(g5
tp7547
sVreduced fat mayonnaise
p7548
(g5
tp7549
sVhabanero
p7550
(g5
tp7551
sV-ounce pumpkin puree
p7552
(g5
tp7553
sVkosher salt freshly cracked black pepper
p7554
(g5
tp7555
sVtabasco sauce optional
p7556
(g5
tp7557
sVgood pinch saffron
p7558
(g5
tp7559
sVseveral worcestershire
p7560
(g5
tp7561
sV-ounce block feta
p7562
(g5
tp7563
sVfinely flat-leaf parsley
p7564
(g5
tp7565
sVcaramel bit
p7566
(g5
tp7567
sVred chile spiked
p7568
(g5
tp7569
sVthyme sprig
p7570
(g5
tp7571
sVdill dill
p7572
(g5
tp7573
sVkosher
p7574
(g5
tp7575
sVdark sesame oil
p7576
(g5
tp7577
sVbig pinch red pepper flake
p7578
(g5
tp7579
sVscant red curry paste
p7580
(g5
tp7581
sVsheet puff pastry -ounce package
p7582
(g5
tp7583
sVcilantro leaf
p7584
(g5
tp7585
sVyellow dye
p7586
(g5
tp7587
sVmagic shell
p7588
(g5
tp7589
sVchili flake
p7590
(g5
tp7591
sS'peanut butter'
p7592
(S'$ 2.121 per lb. '
p7593
g264
tp7594
sVpiece skinless salmon fillet
p7595
(g5
tp7596
sVpressed garlic
p7597
(g5
tp7598
sVpinch powdered saffron
p7599
(g5
tp7600
sVchili garlic sauce sriracha
p7601
(g5
tp7602
sVmix leftover cheese
p7603
(g5
tp7604
sVkosher salt pepper
p7605
(g5
tp7606
sVcumin powder
p7607
(g5
tp7608
sVpackage instant ramen preferably not fried noodle only
p7609
(g5
tp7610
sVgood-tasting vegetable broth
p7611
(g5
tp7612
sVarugula
p7613
(g5
tp7614
sVinstant vanilla pudding mix
p7615
(g5
tp7616
sVassorted food coloring
p7617
(g5
tp7618
sVundyed smoked haddock fillet
p7619
(g5
tp7620
sVcontainer sour cream
p7621
(g5
tp7622
sVshaved parmesan cheese
p7623
(g5
tp7624
sVcilantro parsley
p7625
(g5
tp7626
sVgood maple syrup
p7627
(g5
tp7628
sV-lb butternut squash
p7629
(g5
tp7630
sVwhite pepper
p7631
(g5
tp7632
sVheaped fat-free natural yoghurt
p7633
(g5
tp7634
sV-pounds skinless halibut fillet
p7635
(g5
tp7636
sVparmigiano reggiano cheese
p7637
(g5
tp7638
sVwhole-leaf spinach
p7639
(g5
tp7640
sVbig splash balsamic tarragon vinaigrette*
p7641
(g5
tp7642
sVroughly kale
p7643
(g5
tp7644
sVlouisiana-style pepper sauce
p7645
(g5
tp7646
sV-ounce package firm tofu
p7647
(g5
tp7648
sVchipotle-
p7649
(g5
tp7650
sVpearled barley pearled farro
p7651
(g5
tp7652
sVsliced black olive
p7653
(g5
tp7654
sVharissa paste chilli powder
p7655
(g5
tp7656
sV-inch whole wheat tortilla
p7657
(g5
tp7658
sVoptional pecan
p7659
(g5
tp7660
sVwhole baguette
p7661
(g5
tp7662
sVdry oregano
p7663
(g5
tp7664
sVdiced red bell pepper
p7665
(g5
tp7666
sVmaple pancake syrup
p7667
(g5
tp7668
sVtablesppon ginger
p7669
(g5
tp7670
sVmedjool date removed
p7671
(g5
tp7672
sVfinely thyme leaf
p7673
(g5
tp7674
sVtub crme frache
p7675
(g5
tp7676
sVricotta salata another salty cheese
p7677
(g5
tp7678
sVreduced-sodium vegetable broth
p7679
(g5
tp7680
sVbutternut squash frac
p7681
(g5
tp7682
sVpumpkin pure**
p7683
(g5
tp7684
sVrolled oat quick-cooking old-fashioned will work instant might get little dusty
p7685
(g5
tp7686
sVfreshly parmesan romano
p7687
(g5
tp7688
sVrunny honey
p7689
(g5
tp7690
sVfreshly parmesan gruyre cheese
p7691
(g5
tp7692
sVred yellow pepper
p7693
(g5
tp7694
sVseasoning salt
p7695
(g5
tp7696
sVquality bittersweet chocolate
p7697
(g5
tp7698
sVsplash olive oil
p7699
(g5
tp7700
sVavocado stoned
p7701
(g5
tp7702
sVbroken walnut
p7703
(g5
tp7704
sVcanned jarred artichoke heart
p7705
(g5
tp7706
sVsliced mozzarella cheese
p7707
(g5
tp7708
sVbob red mill farro
p7709
(g5
tp7710
sVfreeze-dried kaffir lime leaf
p7711
(g5
tp7712
sVplain
p7713
(g5
tp7714
sVwhite rum
p7715
(g5
tp7716
sVoriginal bisquick mix
p7717
(g5
tp7718
sVprepared whole wheat pizza dough
p7719
(g5
tp7720
sVheaping walnut
p7721
(g5
tp7722
sVvanilla paste vanilla extract
p7723
(g5
tp7724
sVfried shallot
p7725
(g5
tp7726
sVshoe sting fry
p7727
(g5
tp7728
sVkitchen string
p7729
(g5
tp7730
sVbeansprouts
p7731
(g5
tp7732
sVbutternut squash peeled
p7733
(g5
tp7734
sVgood bunch herb
p7735
(g5
tp7736
sVgranulated garlic
p7737
(g5
tp7738
sVfrac fine-grain sea salt
p7739
(g5
tp7740
sVcoconut nectar
p7741
(g5
tp7742
sVchocolate peppermint coating
p7743
(g5
tp7744
sVthinly sliced yellow bell pepper
p7745
(g5
tp7746
sValmond tart crust
p7747
(g5
tp7748
sVthai red curry paste*
p7749
(g5
tp7750
sVpearl barley
p7751
(g5
tp7752
sVsquid
p7753
(g5
tp7754
sValeppo pepper red pepper flake
p7755
(g5
tp7756
sVmonterey jack farmer cheese
p7757
(g5
tp7758
sVsheet filo pastry
p7759
(g5
tp7760
sVokonomiyaki sauce
p7761
(g5
tp7762
sVfinely jalapeo
p7763
(g5
tp7764
sVblackberry syrup
p7765
(g5
tp7766
sVcrumbled blue cheese mozzarella cheese
p7767
(g5
tp7768
sVtoasted almond
p7769
(g5
tp7770
sVyellow curry powder
p7771
(g5
tp7772
sVscant fine sea salt
p7773
(g5
tp7774
sVhulled
p7775
(g5
tp7776
sVwhipped topping
p7777
(g5
tp7778
sVparsley diced
p7779
(g5
tp7780
sVadd idea fig
p7781
(g5
tp7782
sVstick gram
p7783
(g5
tp7784
sVthai basil
p7785
(g5
tp7786
sVheaped garam masala
p7787
(g5
tp7788
sVcreamy avocado dressing
p7789
(g5
tp7790
sVsalsa verde
p7791
(g5
tp7792
sVpacked spinach leaf
p7793
(g5
tp7794
sVpinch smoked paprika
p7795
(g5
tp7796
sS'tomatoes'
p7797
(S'$ 2.6 per lb. '
p7798
tp7799
sVcod
p7800
(g5
tp7801
sVthin pancetta
p7802
(g5
tp7803
sVbatch swiss chard pesto
p7804
(g5
tp7805
sVbutternut squash pure
p7806
(g5
tp7807
sVgruyre
p7808
(g5
tp7809
sVflaky coarse sea salt
p7810
(g5
tp7811
sVancho chile
p7812
(g5
tp7813
sVfrac about frac strawberry
p7814
(g5
tp7815
sVshrimp used size huge
p7816
(g5
tp7817
sVmixed spice
p7818
(g5
tp7819
sVcauliflower floret
p7820
(g5
tp7821
sVpumpkin pure
p7822
(g5
tp7823
sS'broccoli'
p7824
(S'$ 1.779 per lb. '
p7825
tp7826
sVquart freshly popped popcorn*
p7827
(g5
tp7828
sVpackage dry ranch salad dressing mix
p7829
(g5
tp7830
sVicing flower yellow sprinkle
p7831
(g5
tp7832
sVsingle-malt
p7833
(g5
tp7834
sVfrac low sodium soy sauce
p7835
(g5
tp7836
sVwhite crab meat
p7837
(g5
tp7838
sVcubed honeydew melon
p7839
(g5
tp7840
sVgrand marnier
p7841
(g5
tp7842
sVmedium-dry sherry
p7843
(g5
tp7844
sVpumpkin seed
p7845
(g5
tp7846
sVwhole jarred roasted red pepper
p7847
(g5
tp7848
sVchocolate flake bar
p7849
(g5
tp7850
sVgosling black seal bermuda black rum
p7851
(g5
tp7852
sVturnip
p7853
(g5
tp7854
sVseasoned breadcrumb
p7855
(g5
tp7856
sVdriscoll raspberry
p7857
(g5
tp7858
sVcashew
p7859
(g5
tp7860
sS'bananas'
p7861
(S'$ 0.625 per lb. '
p7862
tp7863
sVrocket
p7864
(g5
tp7865
sVcubed pumpkin butternut squash
p7866
(g5
tp7867
sVold paso green chile
p7868
(g5
tp7869
sVscant freshly ginger
p7870
(g5
tp7871
sVred pepper flake red chile
p7872
(g5
tp7873
sVsoftly whipped cream
p7874
(g5
tp7875
sVpuff pastry
p7876
(g5
tp7877
sVpink salad shrimp
p7878
(g5
tp7879
sVhoney maple syrup agave nectar
p7880
(g5
tp7881
sVunsulphured blackstrap molasses
p7882
(g5
tp7883
sVfrac basil
p7884
(g5
tp7885
sVabout olive oil grapeseed oil keller canola oil
p7886
(g5
tp7887
sVinstant espresso optional
p7888
(g5
tp7889
sVred enchilada sauce
p7890
(g5
tp7891
sV-ounce container ricotta
p7892
(g5
tp7893
sVwhole shallot
p7894
(g5
tp7895
sVyellow courgette
p7896
(g5
tp7897
sVpumpkin puree*
p7898
(g5
tp7899
sVcircular pasta
p7900
(g5
tp7901
sVsweetener
p7902
(g5
tp7903
sVchipotle adobo sauce
p7904
(g5
tp7905
sVplus pure maple syrup
p7906
(g5
tp7907
sVagave nectar honey
p7908
(g5
tp7909
sVgarlic pepper
p7910
(g5
tp7911
sVtoasted nori
p7912
(g5
tp7913
sVextra lime zest
p7914
(g5
tp7915
sVghee
p7916
(g5
tp7917
sVlight olive oil
p7918
(g5
tp7919
sVfrac tequila
p7920
(g5
tp7921
sVpersimmon
p7922
(g5
tp7923
sVbarefoot merlot
p7924
(g5
tp7925
sV-ounce package active dry yeast
p7926
(g5
tp7927
sV-ounce bottle pint chilled stout
p7928
(g5
tp7929
sVinch turmeric root
p7930
(g5
tp7931
sVheaped mint
p7932
(g5
tp7933
sVgrainy brown mustard
p7934
(g5
tp7935
sVshrimp peeled deveined
p7936
(g5
tp7937
sVwhole parsnip
p7938
(g5
tp7939
sVquart canola oil
p7940
(g5
tp7941
sVgroundnut oil
p7942
(g5
tp7943
sVmariquita farm
p7944
(g5
tp7945
sVroasted jalapeno mayo
p7946
(g5
tp7947
sVdoughnut
p7948
(g5
tp7949
sVfluid grenadine syrup
p7950
(g5
tp7951
sVfreshly herb
p7952
(g5
tp7953
sVsandwich bun
p7954
(g5
tp7955
sVtagliatelle
p7956
(g5
tp7957
sVpoblano chile pepper
p7958
(g5
tp7959
sVfine sea salt
p7960
(g5
tp7961
sVdrop vanilla crme stevia
p7962
(g5
tp7963
sVwhole grain fusilli rotini pasta
p7964
(g5
tp7965
sVtoffee bar
p7966
(g5
tp7967
sVtub soft cheese
p7968
(g5
tp7969
sVparmesan romano cheese
p7970
(g5
tp7971
sVthick asparagus
p7972
(g5
tp7973
sVtightly packed cilantro leaf
p7974
(g5
tp7975
sVsprinkle sea salt
p7976
(g5
tp7977
sVpackage white almond bark
p7978
(g5
tp7979
sVpackage size cream cheese
p7980
(g5
tp7981
sV-ounce pure pumpkin
p7982
(g5
tp7983
sVvegetable stock cube
p7984
(g5
tp7985
sVwhole unbaked pie crust
p7986
(g5
tp7987
sVred green pepper
p7988
(g5
tp7989
sVcrystallized ginger
p7990
(g5
tp7991
sV-inch hamburger bun
p7992
(g5
tp7993
sVsliced scallion
p7994
(g5
tp7995
sVcrema mexicana creme fraiche
p7996
(g5
tp7997
sVcubed watermelon
p7998
(g5
tp7999
sVmascarpone cheese
p8000
(g5
tp8001
sVhalf-and-half cream
p8002
(g5
tp8003
sVregular oat
p8004
(g5
tp8005
sVmarmite
p8006
(g5
tp8007
sVgreen olive
p8008
(g5
tp8009
sVfillet tilapia
p8010
(g5
tp8011
sVmedium-large cauliflower
p8012
(g5
tp8013
sVheaping drained artichoke
p8014
(g5
tp8015
sVkosher sea salt freshly ground black pepper
p8016
(g5
tp8017
sVground white black pepper
p8018
(g5
tp8019
sVfrac veggie dairy free cream cheese
p8020
(g5
tp8021
sVextra cheese
p8022
(g5
tp8023
sVfrac whole almond
p8024
(g5
tp8025
sVjalapeno
p8026
(g5
tp8027
sVdressing your choice
p8028
(g5
tp8029
sVpisco
p8030
(g5
tp8031
sVfrac vegetable broth stock
p8032
(g5
tp8033
sVcove garlic
p8034
(g5
tp8035
sVsquid ink pasta
p8036
(g5
tp8037
sVspecial equipment ramekin
p8038
(g5
tp8039
sV-ounce bottle hoegaarden white ale
p8040
(g5
tp8041
sVmaple buttercream frosting
p8042
(g5
tp8043
sVmarshmallow bit
p8044
(g5
tp8045
sVpackage white chocolate instant pudding mix
p8046
(g5
tp8047
sVpepper
p8048
(g5
tp8049
sVbunch bunch
p8050
(g5
tp8051
sVstore-bought
p8052
(g5
tp8053
sV-ounce container sprout such alfalfa
p8054
(g5
tp8055
sVcoconut flake desiccated coconut
p8056
(g5
tp8057
sVtzatziki sauce
p8058
(g5
tp8059
sVsesame seed
p8060
(g5
tp8061
sVstonefire whole grain tandoor baked naan flatbread
p8062
(g5
tp8063
sVfrac salt
p8064
(g5
tp8065
sVparmesan shaving parmesan
p8066
(g5
tp8067
sVpasta
p8068
(g5
tp8069
sVearth balance natural buttery spread olive oil
p8070
(g5
tp8071
sVqueso fresco feta cheese
p8072
(g5
tp8073
sS'short ribs'
p8074
(S'$ 2.572 per lb. '
p8075
g264
tp8076
sVpickled vegetable such okra
p8077
(g5
tp8078
sVdashi
p8079
(g5
tp8080
sVabout
p8081
(g5
tp8082
sVoptional topping slivered basil
p8083
(g5
tp8084
sVpack ready-to-eat quinoa
p8085
(g5
tp8086
sVheaped garlic
p8087
(g5
tp8088
sVdiced green bell pepper
p8089
(g5
tp8090
sVbiscuit
p8091
(g5
tp8092
sVcorn**
p8093
(g5
tp8094
sVbig arugula
p8095
(g5
tp8096
sVcocoa powder use dagoba cacao powder
p8097
(g5
tp8098
sVmeyer lemons*
p8099
(g5
tp8100
sVthai curry paste
p8101
(g5
tp8102
sVfrac finely rosemary
p8103
(g5
tp8104
sVpacket frac instant yeast
p8105
(g5
tp8106
sVchile pepper
p8107
(g5
tp8108
sVcranberry
p8109
(g5
tp8110
sVloosely packed cilantro chervil leaf
p8111
(g5
tp8112
sVgreen chile
p8113
(g5
tp8114
sVcotija cheese
p8115
(g5
tp8116
sVground turmeric
p8117
(g5
tp8118
sVpackage monterey jack cheese
p8119
(g5
tp8120
sVmarshmallow creme
p8121
(g5
tp8122
sVdiced green chili pepper
p8123
(g5
tp8124
sVlight mexican beer
p8125
(g5
tp8126
sVwhole avocado
p8127
(g5
tp8128
sVscotch bonnet habanero pepper
p8129
(g5
tp8130
sVcocoa
p8131
(g5
tp8132
sVblue cheese crumbles
p8133
(g5
tp8134
sVpinch kosher salt
p8135
(g5
tp8136
sVwalnut pecan piece
p8137
(g5
tp8138
sVvelveeta
p8139
(g5
tp8140
sVjalapeo pepper
p8141
(g5
tp8142
sVcouple squirt crystal sauce tabasco
p8143
(g5
tp8144
sVwhole skinless
p8145
(g5
tp8146
sVreduced-sodium soy sauce
p8147
(g5
tp8148
sVsemisweet bittersweet chocolate
p8149
(g5
tp8150
sVextra basil
p8151
(g5
tp8152
sVparmigiano reggiano
p8153
(g5
tp8154
sVgood grating nutmeg
p8155
(g5
tp8156
sVadditional
p8157
(g5
tp8158
sVpackage dry italian-style salad dressing mix
p8159
(g5
tp8160
sVbunch parsley
p8161
(g5
tp8162
sVplenty parmesan cheese
p8163
(g5
tp8164
sVmarsala
p8165
(g5
tp8166
sVheaping freshly parsley
p8167
(g5
tp8168
sVpepper sauce
p8169
(g5
tp8170
sVpecan walnut
p8171
(g5
tp8172
sVcaramel sauce
p8173
(g5
tp8174
sVdeep-fry thermometer
p8175
(g5
tp8176
sVabout cocoa powder
p8177
(g5
tp8178
sVcanola vegetable oil
p8179
(g5
tp8180
sVpackage dry alfredo sauce mix
p8181
(g5
tp8182
sVcheddar-jack cheese
p8183
(g5
tp8184
sVsplash ouzo
p8185
(g5
tp8186
sVlevel sea salt
p8187
(g5
tp8188
sVfinely garlic
p8189
(g5
tp8190
sVchocolate porter stout beer
p8191
(g5
tp8192
sVroughly parsley
p8193
(g5
tp8194
sVdry lasagna noodle requires lasagna noodle unbroken
p8195
(g5
tp8196
sVcircular pretzel
p8197
(g5
tp8198
sVpackage strawberry-flavored jello
p8199
(g5
tp8200
sVone -ounce chickpea
p8201
(g5
tp8202
sVreduced sodium tamari soy sauce
p8203
(g5
tp8204
sVunroasted pecan
p8205
(g5
tp8206
sVdesiccated coconut
p8207
(g5
tp8208
sVunrefined coconut oil
p8209
(g5
tp8210
sS'strawberries'
p8211
(S'$ 3.028 per 12 oz. '
p8212
tp8213
sVblock white marzipan
p8214
(g5
tp8215
sVground coriander seed
p8216
(g5
tp8217
sVcheese tortellini
p8218
(g5
tp8219
sVhoney light agave syrup
p8220
(g5
tp8221
sVplain popped popcorn
p8222
(g5
tp8223
sVchipotle chili powder
p8224
(g5
tp8225
sVdipping bar
p8226
(g5
tp8227
sVchocolate glaze
p8228
(g5
tp8229
sVfrac brussels sprout
p8230
(g5
tp8231
sVfrac melted coconut oil
p8232
(g5
tp8233
sVwhite distilled vinegar
p8234
(g5
tp8235
sVsoft caramel
p8236
(g5
tp8237
sVnaan chapati
p8238
(g5
tp8239
sVbunch spinach kale swiss chard
p8240
(g5
tp8241
sVcoriander seed
p8242
(g5
tp8243
sVgelatine
p8244
(g5
tp8245
sVfrac chilled goat cheese
p8246
(g5
tp8247
sVlightly packed parsley
p8248
(g5
tp8249
sV-inch cube rhubarb
p8250
(g5
tp8251
sVpepper coke
p8252
(g5
tp8253
sVbottle your favorite barbecue sauce
p8254
(g5
tp8255
sVmixed seed sesame
p8256
(g5
tp8257
sVgreen thai chilli
p8258
(g5
tp8259
sVtopping bit serranos
p8260
(g5
tp8261
sVmexican crema
p8262
(g5
tp8263
sVcilantro leaf with tender stem
p8264
(g5
tp8265
sVthyme thyme leaf
p8266
(g5
tp8267
sVgrapeseed oil olive oil
p8268
(g5
tp8269
sVstale turkish flatbread naan
p8270
(g5
tp8271
sVrecipe here
p8272
(g5
tp8273
sVregular lasagna noodle not no-boil
p8274
(g5
tp8275
sVtable salt optional
p8276
(g5
tp8277
sVneon-green food coloring
p8278
(g5
tp8279
sVfew sprig epazote
p8280
(g5
tp8281
sVpenne
p8282
(g5
tp8283
sVchile paste
p8284
(g5
tp8285
sVbunch sized asparagus
p8286
(g5
tp8287
sVolive oil grapeseed oil
p8288
(g5
tp8289
sVfrac mild salsa verde
p8290
(g5
tp8291
sVcinnamon cinnamon stick
p8292
(g5
tp8293
sVmaldon salt freshly black pepper
p8294
(g5
tp8295
sVsalted pretzel
p8296
(g5
tp8297
sVpacked italian parsley leaf
p8298
(g5
tp8299
sVasparagus spear
p8300
(g5
tp8301
sVold paso mild green chile enchilada sauce
p8302
(g5
tp8303
sVgreek extra virgin olive oil
p8304
(g5
tp8305
sVtoasting muffin
p8306
(g5
tp8307
sVroom-temperature
p8308
(g5
tp8309
sVdelallo whole wheat linguine
p8310
(g5
tp8311
sVoat
p8312
(g5
tp8313
sVherb leaf such parsley
p8314
(g5
tp8315
sVbroken salted pretzel
p8316
(g5
tp8317
sVdiced green chile
p8318
(g5
tp8319
sVtruffle oil
p8320
(g5
tp8321
sVwhipping cream
p8322
(g5
tp8323
sVasian fish sauce
p8324
(g5
tp8325
sVcloved garlic
p8326
(g5
tp8327
sVfrac packed thinly sliced kale
p8328
(g5
tp8329
sVpopped popcorn
p8330
(g5
tp8331
sVsilver blanco tequila
p8332
(g5
tp8333
sVchvre goat cheese about
p8334
(g5
tp8335
sVvegetable oil grapeseed olive
p8336
(g5
tp8337
sVherb bouquet bay leaf
p8338
(g5
tp8339
sVcocktail shrimp
p8340
(g5
tp8341
sVfrac parsley leaf
p8342
(g5
tp8343
sVground allspice
p8344
(g5
tp8345
sVeasy chocolate mousse
p8346
(g5
tp8347
sVabout thread saffron
p8348
(g5
tp8349
sVbreadcrumb
p8350
(g5
tp8351
sVgorgonzola
p8352
(g5
tp8353
sVred green food coloring
p8354
(g5
tp8355
sVedible food colouring red
p8356
(g5
tp8357
sVspring green
p8358
(g5
tp8359
sVwhole yellow squash
p8360
(g5
tp8361
sVorganic berry
p8362
(g5
tp8363
sVlittle olive oil
p8364
(g5
tp8365
sVwhole grain mustard
p8366
(g5
tp8367
sVwell-crumbled bay leaf
p8368
(g5
tp8369
sVlow-fat buttermilk
p8370
(g5
tp8371
sVseedless raspberry jam
p8372
(g5
tp8373
sVwhole regular-sized zucchini
p8374
(g5
tp8375
sVthai red curry paste
p8376
(g5
tp8377
sVchilli flake
p8378
(g5
tp8379
sVtoasted almond sliver
p8380
(g5
tp8381
sVhulled strawberry
p8382
(g5
tp8383
sValmond meal
p8384
(g5
tp8385
sVdecaf espresso
p8386
(g5
tp8387
sVquartered artichoke heart
p8388
(g5
tp8389
sVserve toasted pecan dill thyme micro green
p8390
(g5
tp8391
sVbaked
p8392
(g5
tp8393
sVoregano oregano
p8394
(g5
tp8395
s.