(lp0
(S'onions'
p1
I1936
tp2
a(Vgarlic
p3
I1803
tp4
a(Vsalt
p5
I1740
tp6
a(S'butter'
p7
I1677
tp8
a(S'sugar'
p9
I1634
tp10
a(S'eggs'
p11
I1475
tp12
a(Volive oil
p13
I1395
tp14
a(S'flour'
p15
I1389
tp16
a(S'tomatoes'
p17
I1159
tp18
a(S'milk'
p19
I1103
tp20
a.